ARM GAS  C:\Users\weiyi\AppData\Local\Temp\ccemZue5.s 			page 1


   1              		.cpu cortex-m3
   2              		.eabi_attribute 20, 1
   3              		.eabi_attribute 21, 1
   4              		.eabi_attribute 23, 3
   5              		.eabi_attribute 24, 1
   6              		.eabi_attribute 25, 1
   7              		.eabi_attribute 26, 1
   8              		.eabi_attribute 30, 1
   9              		.eabi_attribute 34, 1
  10              		.eabi_attribute 18, 4
  11              		.file	"event_groups.c"
  12              		.text
  13              	.Ltext0:
  14              		.cfi_sections	.debug_frame
  15              		.section	.text.prvTestWaitCondition,"ax",%progbits
  16              		.align	1
  17              		.arch armv7-m
  18              		.syntax unified
  19              		.thumb
  20              		.thumb_func
  21              		.fpu softvfp
  23              	prvTestWaitCondition:
  24              	.LVL0:
  25              	.LFB15:
  26              		.file 1 "Middlewares/Third_Party/FreeRTOS/Source/event_groups.c"
   1:Middlewares/Third_Party/FreeRTOS/Source/event_groups.c **** /*
   2:Middlewares/Third_Party/FreeRTOS/Source/event_groups.c ****  * FreeRTOS Kernel V10.0.1
   3:Middlewares/Third_Party/FreeRTOS/Source/event_groups.c ****  * Copyright (C) 2017 Amazon.com, Inc. or its affiliates.  All Rights Reserved.
   4:Middlewares/Third_Party/FreeRTOS/Source/event_groups.c ****  *
   5:Middlewares/Third_Party/FreeRTOS/Source/event_groups.c ****  * Permission is hereby granted, free of charge, to any person obtaining a copy of
   6:Middlewares/Third_Party/FreeRTOS/Source/event_groups.c ****  * this software and associated documentation files (the "Software"), to deal in
   7:Middlewares/Third_Party/FreeRTOS/Source/event_groups.c ****  * the Software without restriction, including without limitation the rights to
   8:Middlewares/Third_Party/FreeRTOS/Source/event_groups.c ****  * use, copy, modify, merge, publish, distribute, sublicense, and/or sell copies of
   9:Middlewares/Third_Party/FreeRTOS/Source/event_groups.c ****  * the Software, and to permit persons to whom the Software is furnished to do so,
  10:Middlewares/Third_Party/FreeRTOS/Source/event_groups.c ****  * subject to the following conditions:
  11:Middlewares/Third_Party/FreeRTOS/Source/event_groups.c ****  *
  12:Middlewares/Third_Party/FreeRTOS/Source/event_groups.c ****  * The above copyright notice and this permission notice shall be included in all
  13:Middlewares/Third_Party/FreeRTOS/Source/event_groups.c ****  * copies or substantial portions of the Software.
  14:Middlewares/Third_Party/FreeRTOS/Source/event_groups.c ****  *
  15:Middlewares/Third_Party/FreeRTOS/Source/event_groups.c ****  * THE SOFTWARE IS PROVIDED "AS IS", WITHOUT WARRANTY OF ANY KIND, EXPRESS OR
  16:Middlewares/Third_Party/FreeRTOS/Source/event_groups.c ****  * IMPLIED, INCLUDING BUT NOT LIMITED TO THE WARRANTIES OF MERCHANTABILITY, FITNESS
  17:Middlewares/Third_Party/FreeRTOS/Source/event_groups.c ****  * FOR A PARTICULAR PURPOSE AND NONINFRINGEMENT. IN NO EVENT SHALL THE AUTHORS OR
  18:Middlewares/Third_Party/FreeRTOS/Source/event_groups.c ****  * COPYRIGHT HOLDERS BE LIABLE FOR ANY CLAIM, DAMAGES OR OTHER LIABILITY, WHETHER
  19:Middlewares/Third_Party/FreeRTOS/Source/event_groups.c ****  * IN AN ACTION OF CONTRACT, TORT OR OTHERWISE, ARISING FROM, OUT OF OR IN
  20:Middlewares/Third_Party/FreeRTOS/Source/event_groups.c ****  * CONNECTION WITH THE SOFTWARE OR THE USE OR OTHER DEALINGS IN THE SOFTWARE.
  21:Middlewares/Third_Party/FreeRTOS/Source/event_groups.c ****  *
  22:Middlewares/Third_Party/FreeRTOS/Source/event_groups.c ****  * http://www.FreeRTOS.org
  23:Middlewares/Third_Party/FreeRTOS/Source/event_groups.c ****  * http://aws.amazon.com/freertos
  24:Middlewares/Third_Party/FreeRTOS/Source/event_groups.c ****  *
  25:Middlewares/Third_Party/FreeRTOS/Source/event_groups.c ****  * 1 tab == 4 spaces!
  26:Middlewares/Third_Party/FreeRTOS/Source/event_groups.c ****  */
  27:Middlewares/Third_Party/FreeRTOS/Source/event_groups.c **** 
  28:Middlewares/Third_Party/FreeRTOS/Source/event_groups.c **** /* Standard includes. */
  29:Middlewares/Third_Party/FreeRTOS/Source/event_groups.c **** #include <stdlib.h>
  30:Middlewares/Third_Party/FreeRTOS/Source/event_groups.c **** 
  31:Middlewares/Third_Party/FreeRTOS/Source/event_groups.c **** /* Defining MPU_WRAPPERS_INCLUDED_FROM_API_FILE prevents task.h from redefining
  32:Middlewares/Third_Party/FreeRTOS/Source/event_groups.c **** all the API functions to use the MPU wrappers.  That should only be done when
ARM GAS  C:\Users\weiyi\AppData\Local\Temp\ccemZue5.s 			page 2


  33:Middlewares/Third_Party/FreeRTOS/Source/event_groups.c **** task.h is included from an application file. */
  34:Middlewares/Third_Party/FreeRTOS/Source/event_groups.c **** #define MPU_WRAPPERS_INCLUDED_FROM_API_FILE
  35:Middlewares/Third_Party/FreeRTOS/Source/event_groups.c **** 
  36:Middlewares/Third_Party/FreeRTOS/Source/event_groups.c **** /* FreeRTOS includes. */
  37:Middlewares/Third_Party/FreeRTOS/Source/event_groups.c **** #include "FreeRTOS.h"
  38:Middlewares/Third_Party/FreeRTOS/Source/event_groups.c **** #include "task.h"
  39:Middlewares/Third_Party/FreeRTOS/Source/event_groups.c **** #include "timers.h"
  40:Middlewares/Third_Party/FreeRTOS/Source/event_groups.c **** #include "event_groups.h"
  41:Middlewares/Third_Party/FreeRTOS/Source/event_groups.c **** 
  42:Middlewares/Third_Party/FreeRTOS/Source/event_groups.c **** /* Lint e961 and e750 are suppressed as a MISRA exception justified because the
  43:Middlewares/Third_Party/FreeRTOS/Source/event_groups.c **** MPU ports require MPU_WRAPPERS_INCLUDED_FROM_API_FILE to be defined for the
  44:Middlewares/Third_Party/FreeRTOS/Source/event_groups.c **** header files above, but not in this file, in order to generate the correct
  45:Middlewares/Third_Party/FreeRTOS/Source/event_groups.c **** privileged Vs unprivileged linkage and placement. */
  46:Middlewares/Third_Party/FreeRTOS/Source/event_groups.c **** #undef MPU_WRAPPERS_INCLUDED_FROM_API_FILE /*lint !e961 !e750. */
  47:Middlewares/Third_Party/FreeRTOS/Source/event_groups.c **** 
  48:Middlewares/Third_Party/FreeRTOS/Source/event_groups.c **** /* The following bit fields convey control information in a task's event list
  49:Middlewares/Third_Party/FreeRTOS/Source/event_groups.c **** item value.  It is important they don't clash with the
  50:Middlewares/Third_Party/FreeRTOS/Source/event_groups.c **** taskEVENT_LIST_ITEM_VALUE_IN_USE definition. */
  51:Middlewares/Third_Party/FreeRTOS/Source/event_groups.c **** #if configUSE_16_BIT_TICKS == 1
  52:Middlewares/Third_Party/FreeRTOS/Source/event_groups.c **** 	#define eventCLEAR_EVENTS_ON_EXIT_BIT	0x0100U
  53:Middlewares/Third_Party/FreeRTOS/Source/event_groups.c **** 	#define eventUNBLOCKED_DUE_TO_BIT_SET	0x0200U
  54:Middlewares/Third_Party/FreeRTOS/Source/event_groups.c **** 	#define eventWAIT_FOR_ALL_BITS			0x0400U
  55:Middlewares/Third_Party/FreeRTOS/Source/event_groups.c **** 	#define eventEVENT_BITS_CONTROL_BYTES	0xff00U
  56:Middlewares/Third_Party/FreeRTOS/Source/event_groups.c **** #else
  57:Middlewares/Third_Party/FreeRTOS/Source/event_groups.c **** 	#define eventCLEAR_EVENTS_ON_EXIT_BIT	0x01000000UL
  58:Middlewares/Third_Party/FreeRTOS/Source/event_groups.c **** 	#define eventUNBLOCKED_DUE_TO_BIT_SET	0x02000000UL
  59:Middlewares/Third_Party/FreeRTOS/Source/event_groups.c **** 	#define eventWAIT_FOR_ALL_BITS			0x04000000UL
  60:Middlewares/Third_Party/FreeRTOS/Source/event_groups.c **** 	#define eventEVENT_BITS_CONTROL_BYTES	0xff000000UL
  61:Middlewares/Third_Party/FreeRTOS/Source/event_groups.c **** #endif
  62:Middlewares/Third_Party/FreeRTOS/Source/event_groups.c **** 
  63:Middlewares/Third_Party/FreeRTOS/Source/event_groups.c **** typedef struct xEventGroupDefinition
  64:Middlewares/Third_Party/FreeRTOS/Source/event_groups.c **** {
  65:Middlewares/Third_Party/FreeRTOS/Source/event_groups.c **** 	EventBits_t uxEventBits;
  66:Middlewares/Third_Party/FreeRTOS/Source/event_groups.c **** 	List_t xTasksWaitingForBits;		/*< List of tasks waiting for a bit to be set. */
  67:Middlewares/Third_Party/FreeRTOS/Source/event_groups.c **** 
  68:Middlewares/Third_Party/FreeRTOS/Source/event_groups.c **** 	#if( configUSE_TRACE_FACILITY == 1 )
  69:Middlewares/Third_Party/FreeRTOS/Source/event_groups.c **** 		UBaseType_t uxEventGroupNumber;
  70:Middlewares/Third_Party/FreeRTOS/Source/event_groups.c **** 	#endif
  71:Middlewares/Third_Party/FreeRTOS/Source/event_groups.c **** 
  72:Middlewares/Third_Party/FreeRTOS/Source/event_groups.c **** 	#if( ( configSUPPORT_STATIC_ALLOCATION == 1 ) && ( configSUPPORT_DYNAMIC_ALLOCATION == 1 ) )
  73:Middlewares/Third_Party/FreeRTOS/Source/event_groups.c **** 		uint8_t ucStaticallyAllocated; /*< Set to pdTRUE if the event group is statically allocated to en
  74:Middlewares/Third_Party/FreeRTOS/Source/event_groups.c **** 	#endif
  75:Middlewares/Third_Party/FreeRTOS/Source/event_groups.c **** } EventGroup_t;
  76:Middlewares/Third_Party/FreeRTOS/Source/event_groups.c **** 
  77:Middlewares/Third_Party/FreeRTOS/Source/event_groups.c **** /*-----------------------------------------------------------*/
  78:Middlewares/Third_Party/FreeRTOS/Source/event_groups.c **** 
  79:Middlewares/Third_Party/FreeRTOS/Source/event_groups.c **** /*
  80:Middlewares/Third_Party/FreeRTOS/Source/event_groups.c ****  * Test the bits set in uxCurrentEventBits to see if the wait condition is met.
  81:Middlewares/Third_Party/FreeRTOS/Source/event_groups.c ****  * The wait condition is defined by xWaitForAllBits.  If xWaitForAllBits is
  82:Middlewares/Third_Party/FreeRTOS/Source/event_groups.c ****  * pdTRUE then the wait condition is met if all the bits set in uxBitsToWaitFor
  83:Middlewares/Third_Party/FreeRTOS/Source/event_groups.c ****  * are also set in uxCurrentEventBits.  If xWaitForAllBits is pdFALSE then the
  84:Middlewares/Third_Party/FreeRTOS/Source/event_groups.c ****  * wait condition is met if any of the bits set in uxBitsToWait for are also set
  85:Middlewares/Third_Party/FreeRTOS/Source/event_groups.c ****  * in uxCurrentEventBits.
  86:Middlewares/Third_Party/FreeRTOS/Source/event_groups.c ****  */
  87:Middlewares/Third_Party/FreeRTOS/Source/event_groups.c **** static BaseType_t prvTestWaitCondition( const EventBits_t uxCurrentEventBits, const EventBits_t uxB
  88:Middlewares/Third_Party/FreeRTOS/Source/event_groups.c **** 
  89:Middlewares/Third_Party/FreeRTOS/Source/event_groups.c **** /*-----------------------------------------------------------*/
ARM GAS  C:\Users\weiyi\AppData\Local\Temp\ccemZue5.s 			page 3


  90:Middlewares/Third_Party/FreeRTOS/Source/event_groups.c **** 
  91:Middlewares/Third_Party/FreeRTOS/Source/event_groups.c **** #if( configSUPPORT_STATIC_ALLOCATION == 1 )
  92:Middlewares/Third_Party/FreeRTOS/Source/event_groups.c **** 
  93:Middlewares/Third_Party/FreeRTOS/Source/event_groups.c **** 	EventGroupHandle_t xEventGroupCreateStatic( StaticEventGroup_t *pxEventGroupBuffer )
  94:Middlewares/Third_Party/FreeRTOS/Source/event_groups.c **** 	{
  95:Middlewares/Third_Party/FreeRTOS/Source/event_groups.c **** 	EventGroup_t *pxEventBits;
  96:Middlewares/Third_Party/FreeRTOS/Source/event_groups.c **** 
  97:Middlewares/Third_Party/FreeRTOS/Source/event_groups.c **** 		/* A StaticEventGroup_t object must be provided. */
  98:Middlewares/Third_Party/FreeRTOS/Source/event_groups.c **** 		configASSERT( pxEventGroupBuffer );
  99:Middlewares/Third_Party/FreeRTOS/Source/event_groups.c **** 
 100:Middlewares/Third_Party/FreeRTOS/Source/event_groups.c **** 		#if( configASSERT_DEFINED == 1 )
 101:Middlewares/Third_Party/FreeRTOS/Source/event_groups.c **** 		{
 102:Middlewares/Third_Party/FreeRTOS/Source/event_groups.c **** 			/* Sanity check that the size of the structure used to declare a
 103:Middlewares/Third_Party/FreeRTOS/Source/event_groups.c **** 			variable of type StaticEventGroup_t equals the size of the real
 104:Middlewares/Third_Party/FreeRTOS/Source/event_groups.c **** 			event group structure. */
 105:Middlewares/Third_Party/FreeRTOS/Source/event_groups.c **** 			volatile size_t xSize = sizeof( StaticEventGroup_t );
 106:Middlewares/Third_Party/FreeRTOS/Source/event_groups.c **** 			configASSERT( xSize == sizeof( EventGroup_t ) );
 107:Middlewares/Third_Party/FreeRTOS/Source/event_groups.c **** 		}
 108:Middlewares/Third_Party/FreeRTOS/Source/event_groups.c **** 		#endif /* configASSERT_DEFINED */
 109:Middlewares/Third_Party/FreeRTOS/Source/event_groups.c **** 
 110:Middlewares/Third_Party/FreeRTOS/Source/event_groups.c **** 		/* The user has provided a statically allocated event group - use it. */
 111:Middlewares/Third_Party/FreeRTOS/Source/event_groups.c **** 		pxEventBits = ( EventGroup_t * ) pxEventGroupBuffer; /*lint !e740 EventGroup_t and StaticEventGro
 112:Middlewares/Third_Party/FreeRTOS/Source/event_groups.c **** 
 113:Middlewares/Third_Party/FreeRTOS/Source/event_groups.c **** 		if( pxEventBits != NULL )
 114:Middlewares/Third_Party/FreeRTOS/Source/event_groups.c **** 		{
 115:Middlewares/Third_Party/FreeRTOS/Source/event_groups.c **** 			pxEventBits->uxEventBits = 0;
 116:Middlewares/Third_Party/FreeRTOS/Source/event_groups.c **** 			vListInitialise( &( pxEventBits->xTasksWaitingForBits ) );
 117:Middlewares/Third_Party/FreeRTOS/Source/event_groups.c **** 
 118:Middlewares/Third_Party/FreeRTOS/Source/event_groups.c **** 			#if( configSUPPORT_DYNAMIC_ALLOCATION == 1 )
 119:Middlewares/Third_Party/FreeRTOS/Source/event_groups.c **** 			{
 120:Middlewares/Third_Party/FreeRTOS/Source/event_groups.c **** 				/* Both static and dynamic allocation can be used, so note that
 121:Middlewares/Third_Party/FreeRTOS/Source/event_groups.c **** 				this event group was created statically in case the event group
 122:Middlewares/Third_Party/FreeRTOS/Source/event_groups.c **** 				is later deleted. */
 123:Middlewares/Third_Party/FreeRTOS/Source/event_groups.c **** 				pxEventBits->ucStaticallyAllocated = pdTRUE;
 124:Middlewares/Third_Party/FreeRTOS/Source/event_groups.c **** 			}
 125:Middlewares/Third_Party/FreeRTOS/Source/event_groups.c **** 			#endif /* configSUPPORT_DYNAMIC_ALLOCATION */
 126:Middlewares/Third_Party/FreeRTOS/Source/event_groups.c **** 
 127:Middlewares/Third_Party/FreeRTOS/Source/event_groups.c **** 			traceEVENT_GROUP_CREATE( pxEventBits );
 128:Middlewares/Third_Party/FreeRTOS/Source/event_groups.c **** 		}
 129:Middlewares/Third_Party/FreeRTOS/Source/event_groups.c **** 		else
 130:Middlewares/Third_Party/FreeRTOS/Source/event_groups.c **** 		{
 131:Middlewares/Third_Party/FreeRTOS/Source/event_groups.c **** 			traceEVENT_GROUP_CREATE_FAILED();
 132:Middlewares/Third_Party/FreeRTOS/Source/event_groups.c **** 		}
 133:Middlewares/Third_Party/FreeRTOS/Source/event_groups.c **** 
 134:Middlewares/Third_Party/FreeRTOS/Source/event_groups.c **** 		return ( EventGroupHandle_t ) pxEventBits;
 135:Middlewares/Third_Party/FreeRTOS/Source/event_groups.c **** 	}
 136:Middlewares/Third_Party/FreeRTOS/Source/event_groups.c **** 
 137:Middlewares/Third_Party/FreeRTOS/Source/event_groups.c **** #endif /* configSUPPORT_STATIC_ALLOCATION */
 138:Middlewares/Third_Party/FreeRTOS/Source/event_groups.c **** /*-----------------------------------------------------------*/
 139:Middlewares/Third_Party/FreeRTOS/Source/event_groups.c **** 
 140:Middlewares/Third_Party/FreeRTOS/Source/event_groups.c **** #if( configSUPPORT_DYNAMIC_ALLOCATION == 1 )
 141:Middlewares/Third_Party/FreeRTOS/Source/event_groups.c **** 
 142:Middlewares/Third_Party/FreeRTOS/Source/event_groups.c **** 	EventGroupHandle_t xEventGroupCreate( void )
 143:Middlewares/Third_Party/FreeRTOS/Source/event_groups.c **** 	{
 144:Middlewares/Third_Party/FreeRTOS/Source/event_groups.c **** 	EventGroup_t *pxEventBits;
 145:Middlewares/Third_Party/FreeRTOS/Source/event_groups.c **** 
 146:Middlewares/Third_Party/FreeRTOS/Source/event_groups.c **** 		/* Allocate the event group. */
ARM GAS  C:\Users\weiyi\AppData\Local\Temp\ccemZue5.s 			page 4


 147:Middlewares/Third_Party/FreeRTOS/Source/event_groups.c **** 		pxEventBits = ( EventGroup_t * ) pvPortMalloc( sizeof( EventGroup_t ) );
 148:Middlewares/Third_Party/FreeRTOS/Source/event_groups.c **** 
 149:Middlewares/Third_Party/FreeRTOS/Source/event_groups.c **** 		if( pxEventBits != NULL )
 150:Middlewares/Third_Party/FreeRTOS/Source/event_groups.c **** 		{
 151:Middlewares/Third_Party/FreeRTOS/Source/event_groups.c **** 			pxEventBits->uxEventBits = 0;
 152:Middlewares/Third_Party/FreeRTOS/Source/event_groups.c **** 			vListInitialise( &( pxEventBits->xTasksWaitingForBits ) );
 153:Middlewares/Third_Party/FreeRTOS/Source/event_groups.c **** 
 154:Middlewares/Third_Party/FreeRTOS/Source/event_groups.c **** 			#if( configSUPPORT_STATIC_ALLOCATION == 1 )
 155:Middlewares/Third_Party/FreeRTOS/Source/event_groups.c **** 			{
 156:Middlewares/Third_Party/FreeRTOS/Source/event_groups.c **** 				/* Both static and dynamic allocation can be used, so note this
 157:Middlewares/Third_Party/FreeRTOS/Source/event_groups.c **** 				event group was allocated statically in case the event group is
 158:Middlewares/Third_Party/FreeRTOS/Source/event_groups.c **** 				later deleted. */
 159:Middlewares/Third_Party/FreeRTOS/Source/event_groups.c **** 				pxEventBits->ucStaticallyAllocated = pdFALSE;
 160:Middlewares/Third_Party/FreeRTOS/Source/event_groups.c **** 			}
 161:Middlewares/Third_Party/FreeRTOS/Source/event_groups.c **** 			#endif /* configSUPPORT_STATIC_ALLOCATION */
 162:Middlewares/Third_Party/FreeRTOS/Source/event_groups.c **** 
 163:Middlewares/Third_Party/FreeRTOS/Source/event_groups.c **** 			traceEVENT_GROUP_CREATE( pxEventBits );
 164:Middlewares/Third_Party/FreeRTOS/Source/event_groups.c **** 		}
 165:Middlewares/Third_Party/FreeRTOS/Source/event_groups.c **** 		else
 166:Middlewares/Third_Party/FreeRTOS/Source/event_groups.c **** 		{
 167:Middlewares/Third_Party/FreeRTOS/Source/event_groups.c **** 			traceEVENT_GROUP_CREATE_FAILED();
 168:Middlewares/Third_Party/FreeRTOS/Source/event_groups.c **** 		}
 169:Middlewares/Third_Party/FreeRTOS/Source/event_groups.c **** 
 170:Middlewares/Third_Party/FreeRTOS/Source/event_groups.c **** 		return ( EventGroupHandle_t ) pxEventBits;
 171:Middlewares/Third_Party/FreeRTOS/Source/event_groups.c **** 	}
 172:Middlewares/Third_Party/FreeRTOS/Source/event_groups.c **** 
 173:Middlewares/Third_Party/FreeRTOS/Source/event_groups.c **** #endif /* configSUPPORT_DYNAMIC_ALLOCATION */
 174:Middlewares/Third_Party/FreeRTOS/Source/event_groups.c **** /*-----------------------------------------------------------*/
 175:Middlewares/Third_Party/FreeRTOS/Source/event_groups.c **** 
 176:Middlewares/Third_Party/FreeRTOS/Source/event_groups.c **** EventBits_t xEventGroupSync( EventGroupHandle_t xEventGroup, const EventBits_t uxBitsToSet, const E
 177:Middlewares/Third_Party/FreeRTOS/Source/event_groups.c **** {
 178:Middlewares/Third_Party/FreeRTOS/Source/event_groups.c **** EventBits_t uxOriginalBitValue, uxReturn;
 179:Middlewares/Third_Party/FreeRTOS/Source/event_groups.c **** EventGroup_t *pxEventBits = ( EventGroup_t * ) xEventGroup;
 180:Middlewares/Third_Party/FreeRTOS/Source/event_groups.c **** BaseType_t xAlreadyYielded;
 181:Middlewares/Third_Party/FreeRTOS/Source/event_groups.c **** BaseType_t xTimeoutOccurred = pdFALSE;
 182:Middlewares/Third_Party/FreeRTOS/Source/event_groups.c **** 
 183:Middlewares/Third_Party/FreeRTOS/Source/event_groups.c **** 	configASSERT( ( uxBitsToWaitFor & eventEVENT_BITS_CONTROL_BYTES ) == 0 );
 184:Middlewares/Third_Party/FreeRTOS/Source/event_groups.c **** 	configASSERT( uxBitsToWaitFor != 0 );
 185:Middlewares/Third_Party/FreeRTOS/Source/event_groups.c **** 	#if ( ( INCLUDE_xTaskGetSchedulerState == 1 ) || ( configUSE_TIMERS == 1 ) )
 186:Middlewares/Third_Party/FreeRTOS/Source/event_groups.c **** 	{
 187:Middlewares/Third_Party/FreeRTOS/Source/event_groups.c **** 		configASSERT( !( ( xTaskGetSchedulerState() == taskSCHEDULER_SUSPENDED ) && ( xTicksToWait != 0 )
 188:Middlewares/Third_Party/FreeRTOS/Source/event_groups.c **** 	}
 189:Middlewares/Third_Party/FreeRTOS/Source/event_groups.c **** 	#endif
 190:Middlewares/Third_Party/FreeRTOS/Source/event_groups.c **** 
 191:Middlewares/Third_Party/FreeRTOS/Source/event_groups.c **** 	vTaskSuspendAll();
 192:Middlewares/Third_Party/FreeRTOS/Source/event_groups.c **** 	{
 193:Middlewares/Third_Party/FreeRTOS/Source/event_groups.c **** 		uxOriginalBitValue = pxEventBits->uxEventBits;
 194:Middlewares/Third_Party/FreeRTOS/Source/event_groups.c **** 
 195:Middlewares/Third_Party/FreeRTOS/Source/event_groups.c **** 		( void ) xEventGroupSetBits( xEventGroup, uxBitsToSet );
 196:Middlewares/Third_Party/FreeRTOS/Source/event_groups.c **** 
 197:Middlewares/Third_Party/FreeRTOS/Source/event_groups.c **** 		if( ( ( uxOriginalBitValue | uxBitsToSet ) & uxBitsToWaitFor ) == uxBitsToWaitFor )
 198:Middlewares/Third_Party/FreeRTOS/Source/event_groups.c **** 		{
 199:Middlewares/Third_Party/FreeRTOS/Source/event_groups.c **** 			/* All the rendezvous bits are now set - no need to block. */
 200:Middlewares/Third_Party/FreeRTOS/Source/event_groups.c **** 			uxReturn = ( uxOriginalBitValue | uxBitsToSet );
 201:Middlewares/Third_Party/FreeRTOS/Source/event_groups.c **** 
 202:Middlewares/Third_Party/FreeRTOS/Source/event_groups.c **** 			/* Rendezvous always clear the bits.  They will have been cleared
 203:Middlewares/Third_Party/FreeRTOS/Source/event_groups.c **** 			already unless this is the only task in the rendezvous. */
ARM GAS  C:\Users\weiyi\AppData\Local\Temp\ccemZue5.s 			page 5


 204:Middlewares/Third_Party/FreeRTOS/Source/event_groups.c **** 			pxEventBits->uxEventBits &= ~uxBitsToWaitFor;
 205:Middlewares/Third_Party/FreeRTOS/Source/event_groups.c **** 
 206:Middlewares/Third_Party/FreeRTOS/Source/event_groups.c **** 			xTicksToWait = 0;
 207:Middlewares/Third_Party/FreeRTOS/Source/event_groups.c **** 		}
 208:Middlewares/Third_Party/FreeRTOS/Source/event_groups.c **** 		else
 209:Middlewares/Third_Party/FreeRTOS/Source/event_groups.c **** 		{
 210:Middlewares/Third_Party/FreeRTOS/Source/event_groups.c **** 			if( xTicksToWait != ( TickType_t ) 0 )
 211:Middlewares/Third_Party/FreeRTOS/Source/event_groups.c **** 			{
 212:Middlewares/Third_Party/FreeRTOS/Source/event_groups.c **** 				traceEVENT_GROUP_SYNC_BLOCK( xEventGroup, uxBitsToSet, uxBitsToWaitFor );
 213:Middlewares/Third_Party/FreeRTOS/Source/event_groups.c **** 
 214:Middlewares/Third_Party/FreeRTOS/Source/event_groups.c **** 				/* Store the bits that the calling task is waiting for in the
 215:Middlewares/Third_Party/FreeRTOS/Source/event_groups.c **** 				task's event list item so the kernel knows when a match is
 216:Middlewares/Third_Party/FreeRTOS/Source/event_groups.c **** 				found.  Then enter the blocked state. */
 217:Middlewares/Third_Party/FreeRTOS/Source/event_groups.c **** 				vTaskPlaceOnUnorderedEventList( &( pxEventBits->xTasksWaitingForBits ), ( uxBitsToWaitFor | eve
 218:Middlewares/Third_Party/FreeRTOS/Source/event_groups.c **** 
 219:Middlewares/Third_Party/FreeRTOS/Source/event_groups.c **** 				/* This assignment is obsolete as uxReturn will get set after
 220:Middlewares/Third_Party/FreeRTOS/Source/event_groups.c **** 				the task unblocks, but some compilers mistakenly generate a
 221:Middlewares/Third_Party/FreeRTOS/Source/event_groups.c **** 				warning about uxReturn being returned without being set if the
 222:Middlewares/Third_Party/FreeRTOS/Source/event_groups.c **** 				assignment is omitted. */
 223:Middlewares/Third_Party/FreeRTOS/Source/event_groups.c **** 				uxReturn = 0;
 224:Middlewares/Third_Party/FreeRTOS/Source/event_groups.c **** 			}
 225:Middlewares/Third_Party/FreeRTOS/Source/event_groups.c **** 			else
 226:Middlewares/Third_Party/FreeRTOS/Source/event_groups.c **** 			{
 227:Middlewares/Third_Party/FreeRTOS/Source/event_groups.c **** 				/* The rendezvous bits were not set, but no block time was
 228:Middlewares/Third_Party/FreeRTOS/Source/event_groups.c **** 				specified - just return the current event bit value. */
 229:Middlewares/Third_Party/FreeRTOS/Source/event_groups.c **** 				uxReturn = pxEventBits->uxEventBits;
 230:Middlewares/Third_Party/FreeRTOS/Source/event_groups.c **** 				xTimeoutOccurred = pdTRUE;
 231:Middlewares/Third_Party/FreeRTOS/Source/event_groups.c **** 			}
 232:Middlewares/Third_Party/FreeRTOS/Source/event_groups.c **** 		}
 233:Middlewares/Third_Party/FreeRTOS/Source/event_groups.c **** 	}
 234:Middlewares/Third_Party/FreeRTOS/Source/event_groups.c **** 	xAlreadyYielded = xTaskResumeAll();
 235:Middlewares/Third_Party/FreeRTOS/Source/event_groups.c **** 
 236:Middlewares/Third_Party/FreeRTOS/Source/event_groups.c **** 	if( xTicksToWait != ( TickType_t ) 0 )
 237:Middlewares/Third_Party/FreeRTOS/Source/event_groups.c **** 	{
 238:Middlewares/Third_Party/FreeRTOS/Source/event_groups.c **** 		if( xAlreadyYielded == pdFALSE )
 239:Middlewares/Third_Party/FreeRTOS/Source/event_groups.c **** 		{
 240:Middlewares/Third_Party/FreeRTOS/Source/event_groups.c **** 			portYIELD_WITHIN_API();
 241:Middlewares/Third_Party/FreeRTOS/Source/event_groups.c **** 		}
 242:Middlewares/Third_Party/FreeRTOS/Source/event_groups.c **** 		else
 243:Middlewares/Third_Party/FreeRTOS/Source/event_groups.c **** 		{
 244:Middlewares/Third_Party/FreeRTOS/Source/event_groups.c **** 			mtCOVERAGE_TEST_MARKER();
 245:Middlewares/Third_Party/FreeRTOS/Source/event_groups.c **** 		}
 246:Middlewares/Third_Party/FreeRTOS/Source/event_groups.c **** 
 247:Middlewares/Third_Party/FreeRTOS/Source/event_groups.c **** 		/* The task blocked to wait for its required bits to be set - at this
 248:Middlewares/Third_Party/FreeRTOS/Source/event_groups.c **** 		point either the required bits were set or the block time expired.  If
 249:Middlewares/Third_Party/FreeRTOS/Source/event_groups.c **** 		the required bits were set they will have been stored in the task's
 250:Middlewares/Third_Party/FreeRTOS/Source/event_groups.c **** 		event list item, and they should now be retrieved then cleared. */
 251:Middlewares/Third_Party/FreeRTOS/Source/event_groups.c **** 		uxReturn = uxTaskResetEventItemValue();
 252:Middlewares/Third_Party/FreeRTOS/Source/event_groups.c **** 
 253:Middlewares/Third_Party/FreeRTOS/Source/event_groups.c **** 		if( ( uxReturn & eventUNBLOCKED_DUE_TO_BIT_SET ) == ( EventBits_t ) 0 )
 254:Middlewares/Third_Party/FreeRTOS/Source/event_groups.c **** 		{
 255:Middlewares/Third_Party/FreeRTOS/Source/event_groups.c **** 			/* The task timed out, just return the current event bit value. */
 256:Middlewares/Third_Party/FreeRTOS/Source/event_groups.c **** 			taskENTER_CRITICAL();
 257:Middlewares/Third_Party/FreeRTOS/Source/event_groups.c **** 			{
 258:Middlewares/Third_Party/FreeRTOS/Source/event_groups.c **** 				uxReturn = pxEventBits->uxEventBits;
 259:Middlewares/Third_Party/FreeRTOS/Source/event_groups.c **** 
 260:Middlewares/Third_Party/FreeRTOS/Source/event_groups.c **** 				/* Although the task got here because it timed out before the
ARM GAS  C:\Users\weiyi\AppData\Local\Temp\ccemZue5.s 			page 6


 261:Middlewares/Third_Party/FreeRTOS/Source/event_groups.c **** 				bits it was waiting for were set, it is possible that since it
 262:Middlewares/Third_Party/FreeRTOS/Source/event_groups.c **** 				unblocked another task has set the bits.  If this is the case
 263:Middlewares/Third_Party/FreeRTOS/Source/event_groups.c **** 				then it needs to clear the bits before exiting. */
 264:Middlewares/Third_Party/FreeRTOS/Source/event_groups.c **** 				if( ( uxReturn & uxBitsToWaitFor ) == uxBitsToWaitFor )
 265:Middlewares/Third_Party/FreeRTOS/Source/event_groups.c **** 				{
 266:Middlewares/Third_Party/FreeRTOS/Source/event_groups.c **** 					pxEventBits->uxEventBits &= ~uxBitsToWaitFor;
 267:Middlewares/Third_Party/FreeRTOS/Source/event_groups.c **** 				}
 268:Middlewares/Third_Party/FreeRTOS/Source/event_groups.c **** 				else
 269:Middlewares/Third_Party/FreeRTOS/Source/event_groups.c **** 				{
 270:Middlewares/Third_Party/FreeRTOS/Source/event_groups.c **** 					mtCOVERAGE_TEST_MARKER();
 271:Middlewares/Third_Party/FreeRTOS/Source/event_groups.c **** 				}
 272:Middlewares/Third_Party/FreeRTOS/Source/event_groups.c **** 			}
 273:Middlewares/Third_Party/FreeRTOS/Source/event_groups.c **** 			taskEXIT_CRITICAL();
 274:Middlewares/Third_Party/FreeRTOS/Source/event_groups.c **** 
 275:Middlewares/Third_Party/FreeRTOS/Source/event_groups.c **** 			xTimeoutOccurred = pdTRUE;
 276:Middlewares/Third_Party/FreeRTOS/Source/event_groups.c **** 		}
 277:Middlewares/Third_Party/FreeRTOS/Source/event_groups.c **** 		else
 278:Middlewares/Third_Party/FreeRTOS/Source/event_groups.c **** 		{
 279:Middlewares/Third_Party/FreeRTOS/Source/event_groups.c **** 			/* The task unblocked because the bits were set. */
 280:Middlewares/Third_Party/FreeRTOS/Source/event_groups.c **** 		}
 281:Middlewares/Third_Party/FreeRTOS/Source/event_groups.c **** 
 282:Middlewares/Third_Party/FreeRTOS/Source/event_groups.c **** 		/* Control bits might be set as the task had blocked should not be
 283:Middlewares/Third_Party/FreeRTOS/Source/event_groups.c **** 		returned. */
 284:Middlewares/Third_Party/FreeRTOS/Source/event_groups.c **** 		uxReturn &= ~eventEVENT_BITS_CONTROL_BYTES;
 285:Middlewares/Third_Party/FreeRTOS/Source/event_groups.c **** 	}
 286:Middlewares/Third_Party/FreeRTOS/Source/event_groups.c **** 
 287:Middlewares/Third_Party/FreeRTOS/Source/event_groups.c **** 	traceEVENT_GROUP_SYNC_END( xEventGroup, uxBitsToSet, uxBitsToWaitFor, xTimeoutOccurred );
 288:Middlewares/Third_Party/FreeRTOS/Source/event_groups.c **** 
 289:Middlewares/Third_Party/FreeRTOS/Source/event_groups.c **** 	/* Prevent compiler warnings when trace macros are not used. */
 290:Middlewares/Third_Party/FreeRTOS/Source/event_groups.c **** 	( void ) xTimeoutOccurred;
 291:Middlewares/Third_Party/FreeRTOS/Source/event_groups.c **** 
 292:Middlewares/Third_Party/FreeRTOS/Source/event_groups.c **** 	return uxReturn;
 293:Middlewares/Third_Party/FreeRTOS/Source/event_groups.c **** }
 294:Middlewares/Third_Party/FreeRTOS/Source/event_groups.c **** /*-----------------------------------------------------------*/
 295:Middlewares/Third_Party/FreeRTOS/Source/event_groups.c **** 
 296:Middlewares/Third_Party/FreeRTOS/Source/event_groups.c **** EventBits_t xEventGroupWaitBits( EventGroupHandle_t xEventGroup, const EventBits_t uxBitsToWaitFor,
 297:Middlewares/Third_Party/FreeRTOS/Source/event_groups.c **** {
 298:Middlewares/Third_Party/FreeRTOS/Source/event_groups.c **** EventGroup_t *pxEventBits = ( EventGroup_t * ) xEventGroup;
 299:Middlewares/Third_Party/FreeRTOS/Source/event_groups.c **** EventBits_t uxReturn, uxControlBits = 0;
 300:Middlewares/Third_Party/FreeRTOS/Source/event_groups.c **** BaseType_t xWaitConditionMet, xAlreadyYielded;
 301:Middlewares/Third_Party/FreeRTOS/Source/event_groups.c **** BaseType_t xTimeoutOccurred = pdFALSE;
 302:Middlewares/Third_Party/FreeRTOS/Source/event_groups.c **** 
 303:Middlewares/Third_Party/FreeRTOS/Source/event_groups.c **** 	/* Check the user is not attempting to wait on the bits used by the kernel
 304:Middlewares/Third_Party/FreeRTOS/Source/event_groups.c **** 	itself, and that at least one bit is being requested. */
 305:Middlewares/Third_Party/FreeRTOS/Source/event_groups.c **** 	configASSERT( xEventGroup );
 306:Middlewares/Third_Party/FreeRTOS/Source/event_groups.c **** 	configASSERT( ( uxBitsToWaitFor & eventEVENT_BITS_CONTROL_BYTES ) == 0 );
 307:Middlewares/Third_Party/FreeRTOS/Source/event_groups.c **** 	configASSERT( uxBitsToWaitFor != 0 );
 308:Middlewares/Third_Party/FreeRTOS/Source/event_groups.c **** 	#if ( ( INCLUDE_xTaskGetSchedulerState == 1 ) || ( configUSE_TIMERS == 1 ) )
 309:Middlewares/Third_Party/FreeRTOS/Source/event_groups.c **** 	{
 310:Middlewares/Third_Party/FreeRTOS/Source/event_groups.c **** 		configASSERT( !( ( xTaskGetSchedulerState() == taskSCHEDULER_SUSPENDED ) && ( xTicksToWait != 0 )
 311:Middlewares/Third_Party/FreeRTOS/Source/event_groups.c **** 	}
 312:Middlewares/Third_Party/FreeRTOS/Source/event_groups.c **** 	#endif
 313:Middlewares/Third_Party/FreeRTOS/Source/event_groups.c **** 
 314:Middlewares/Third_Party/FreeRTOS/Source/event_groups.c **** 	vTaskSuspendAll();
 315:Middlewares/Third_Party/FreeRTOS/Source/event_groups.c **** 	{
 316:Middlewares/Third_Party/FreeRTOS/Source/event_groups.c **** 		const EventBits_t uxCurrentEventBits = pxEventBits->uxEventBits;
 317:Middlewares/Third_Party/FreeRTOS/Source/event_groups.c **** 
ARM GAS  C:\Users\weiyi\AppData\Local\Temp\ccemZue5.s 			page 7


 318:Middlewares/Third_Party/FreeRTOS/Source/event_groups.c **** 		/* Check to see if the wait condition is already met or not. */
 319:Middlewares/Third_Party/FreeRTOS/Source/event_groups.c **** 		xWaitConditionMet = prvTestWaitCondition( uxCurrentEventBits, uxBitsToWaitFor, xWaitForAllBits );
 320:Middlewares/Third_Party/FreeRTOS/Source/event_groups.c **** 
 321:Middlewares/Third_Party/FreeRTOS/Source/event_groups.c **** 		if( xWaitConditionMet != pdFALSE )
 322:Middlewares/Third_Party/FreeRTOS/Source/event_groups.c **** 		{
 323:Middlewares/Third_Party/FreeRTOS/Source/event_groups.c **** 			/* The wait condition has already been met so there is no need to
 324:Middlewares/Third_Party/FreeRTOS/Source/event_groups.c **** 			block. */
 325:Middlewares/Third_Party/FreeRTOS/Source/event_groups.c **** 			uxReturn = uxCurrentEventBits;
 326:Middlewares/Third_Party/FreeRTOS/Source/event_groups.c **** 			xTicksToWait = ( TickType_t ) 0;
 327:Middlewares/Third_Party/FreeRTOS/Source/event_groups.c **** 
 328:Middlewares/Third_Party/FreeRTOS/Source/event_groups.c **** 			/* Clear the wait bits if requested to do so. */
 329:Middlewares/Third_Party/FreeRTOS/Source/event_groups.c **** 			if( xClearOnExit != pdFALSE )
 330:Middlewares/Third_Party/FreeRTOS/Source/event_groups.c **** 			{
 331:Middlewares/Third_Party/FreeRTOS/Source/event_groups.c **** 				pxEventBits->uxEventBits &= ~uxBitsToWaitFor;
 332:Middlewares/Third_Party/FreeRTOS/Source/event_groups.c **** 			}
 333:Middlewares/Third_Party/FreeRTOS/Source/event_groups.c **** 			else
 334:Middlewares/Third_Party/FreeRTOS/Source/event_groups.c **** 			{
 335:Middlewares/Third_Party/FreeRTOS/Source/event_groups.c **** 				mtCOVERAGE_TEST_MARKER();
 336:Middlewares/Third_Party/FreeRTOS/Source/event_groups.c **** 			}
 337:Middlewares/Third_Party/FreeRTOS/Source/event_groups.c **** 		}
 338:Middlewares/Third_Party/FreeRTOS/Source/event_groups.c **** 		else if( xTicksToWait == ( TickType_t ) 0 )
 339:Middlewares/Third_Party/FreeRTOS/Source/event_groups.c **** 		{
 340:Middlewares/Third_Party/FreeRTOS/Source/event_groups.c **** 			/* The wait condition has not been met, but no block time was
 341:Middlewares/Third_Party/FreeRTOS/Source/event_groups.c **** 			specified, so just return the current value. */
 342:Middlewares/Third_Party/FreeRTOS/Source/event_groups.c **** 			uxReturn = uxCurrentEventBits;
 343:Middlewares/Third_Party/FreeRTOS/Source/event_groups.c **** 			xTimeoutOccurred = pdTRUE;
 344:Middlewares/Third_Party/FreeRTOS/Source/event_groups.c **** 		}
 345:Middlewares/Third_Party/FreeRTOS/Source/event_groups.c **** 		else
 346:Middlewares/Third_Party/FreeRTOS/Source/event_groups.c **** 		{
 347:Middlewares/Third_Party/FreeRTOS/Source/event_groups.c **** 			/* The task is going to block to wait for its required bits to be
 348:Middlewares/Third_Party/FreeRTOS/Source/event_groups.c **** 			set.  uxControlBits are used to remember the specified behaviour of
 349:Middlewares/Third_Party/FreeRTOS/Source/event_groups.c **** 			this call to xEventGroupWaitBits() - for use when the event bits
 350:Middlewares/Third_Party/FreeRTOS/Source/event_groups.c **** 			unblock the task. */
 351:Middlewares/Third_Party/FreeRTOS/Source/event_groups.c **** 			if( xClearOnExit != pdFALSE )
 352:Middlewares/Third_Party/FreeRTOS/Source/event_groups.c **** 			{
 353:Middlewares/Third_Party/FreeRTOS/Source/event_groups.c **** 				uxControlBits |= eventCLEAR_EVENTS_ON_EXIT_BIT;
 354:Middlewares/Third_Party/FreeRTOS/Source/event_groups.c **** 			}
 355:Middlewares/Third_Party/FreeRTOS/Source/event_groups.c **** 			else
 356:Middlewares/Third_Party/FreeRTOS/Source/event_groups.c **** 			{
 357:Middlewares/Third_Party/FreeRTOS/Source/event_groups.c **** 				mtCOVERAGE_TEST_MARKER();
 358:Middlewares/Third_Party/FreeRTOS/Source/event_groups.c **** 			}
 359:Middlewares/Third_Party/FreeRTOS/Source/event_groups.c **** 
 360:Middlewares/Third_Party/FreeRTOS/Source/event_groups.c **** 			if( xWaitForAllBits != pdFALSE )
 361:Middlewares/Third_Party/FreeRTOS/Source/event_groups.c **** 			{
 362:Middlewares/Third_Party/FreeRTOS/Source/event_groups.c **** 				uxControlBits |= eventWAIT_FOR_ALL_BITS;
 363:Middlewares/Third_Party/FreeRTOS/Source/event_groups.c **** 			}
 364:Middlewares/Third_Party/FreeRTOS/Source/event_groups.c **** 			else
 365:Middlewares/Third_Party/FreeRTOS/Source/event_groups.c **** 			{
 366:Middlewares/Third_Party/FreeRTOS/Source/event_groups.c **** 				mtCOVERAGE_TEST_MARKER();
 367:Middlewares/Third_Party/FreeRTOS/Source/event_groups.c **** 			}
 368:Middlewares/Third_Party/FreeRTOS/Source/event_groups.c **** 
 369:Middlewares/Third_Party/FreeRTOS/Source/event_groups.c **** 			/* Store the bits that the calling task is waiting for in the
 370:Middlewares/Third_Party/FreeRTOS/Source/event_groups.c **** 			task's event list item so the kernel knows when a match is
 371:Middlewares/Third_Party/FreeRTOS/Source/event_groups.c **** 			found.  Then enter the blocked state. */
 372:Middlewares/Third_Party/FreeRTOS/Source/event_groups.c **** 			vTaskPlaceOnUnorderedEventList( &( pxEventBits->xTasksWaitingForBits ), ( uxBitsToWaitFor | uxCo
 373:Middlewares/Third_Party/FreeRTOS/Source/event_groups.c **** 
 374:Middlewares/Third_Party/FreeRTOS/Source/event_groups.c **** 			/* This is obsolete as it will get set after the task unblocks, but
ARM GAS  C:\Users\weiyi\AppData\Local\Temp\ccemZue5.s 			page 8


 375:Middlewares/Third_Party/FreeRTOS/Source/event_groups.c **** 			some compilers mistakenly generate a warning about the variable
 376:Middlewares/Third_Party/FreeRTOS/Source/event_groups.c **** 			being returned without being set if it is not done. */
 377:Middlewares/Third_Party/FreeRTOS/Source/event_groups.c **** 			uxReturn = 0;
 378:Middlewares/Third_Party/FreeRTOS/Source/event_groups.c **** 
 379:Middlewares/Third_Party/FreeRTOS/Source/event_groups.c **** 			traceEVENT_GROUP_WAIT_BITS_BLOCK( xEventGroup, uxBitsToWaitFor );
 380:Middlewares/Third_Party/FreeRTOS/Source/event_groups.c **** 		}
 381:Middlewares/Third_Party/FreeRTOS/Source/event_groups.c **** 	}
 382:Middlewares/Third_Party/FreeRTOS/Source/event_groups.c **** 	xAlreadyYielded = xTaskResumeAll();
 383:Middlewares/Third_Party/FreeRTOS/Source/event_groups.c **** 
 384:Middlewares/Third_Party/FreeRTOS/Source/event_groups.c **** 	if( xTicksToWait != ( TickType_t ) 0 )
 385:Middlewares/Third_Party/FreeRTOS/Source/event_groups.c **** 	{
 386:Middlewares/Third_Party/FreeRTOS/Source/event_groups.c **** 		if( xAlreadyYielded == pdFALSE )
 387:Middlewares/Third_Party/FreeRTOS/Source/event_groups.c **** 		{
 388:Middlewares/Third_Party/FreeRTOS/Source/event_groups.c **** 			portYIELD_WITHIN_API();
 389:Middlewares/Third_Party/FreeRTOS/Source/event_groups.c **** 		}
 390:Middlewares/Third_Party/FreeRTOS/Source/event_groups.c **** 		else
 391:Middlewares/Third_Party/FreeRTOS/Source/event_groups.c **** 		{
 392:Middlewares/Third_Party/FreeRTOS/Source/event_groups.c **** 			mtCOVERAGE_TEST_MARKER();
 393:Middlewares/Third_Party/FreeRTOS/Source/event_groups.c **** 		}
 394:Middlewares/Third_Party/FreeRTOS/Source/event_groups.c **** 
 395:Middlewares/Third_Party/FreeRTOS/Source/event_groups.c **** 		/* The task blocked to wait for its required bits to be set - at this
 396:Middlewares/Third_Party/FreeRTOS/Source/event_groups.c **** 		point either the required bits were set or the block time expired.  If
 397:Middlewares/Third_Party/FreeRTOS/Source/event_groups.c **** 		the required bits were set they will have been stored in the task's
 398:Middlewares/Third_Party/FreeRTOS/Source/event_groups.c **** 		event list item, and they should now be retrieved then cleared. */
 399:Middlewares/Third_Party/FreeRTOS/Source/event_groups.c **** 		uxReturn = uxTaskResetEventItemValue();
 400:Middlewares/Third_Party/FreeRTOS/Source/event_groups.c **** 
 401:Middlewares/Third_Party/FreeRTOS/Source/event_groups.c **** 		if( ( uxReturn & eventUNBLOCKED_DUE_TO_BIT_SET ) == ( EventBits_t ) 0 )
 402:Middlewares/Third_Party/FreeRTOS/Source/event_groups.c **** 		{
 403:Middlewares/Third_Party/FreeRTOS/Source/event_groups.c **** 			taskENTER_CRITICAL();
 404:Middlewares/Third_Party/FreeRTOS/Source/event_groups.c **** 			{
 405:Middlewares/Third_Party/FreeRTOS/Source/event_groups.c **** 				/* The task timed out, just return the current event bit value. */
 406:Middlewares/Third_Party/FreeRTOS/Source/event_groups.c **** 				uxReturn = pxEventBits->uxEventBits;
 407:Middlewares/Third_Party/FreeRTOS/Source/event_groups.c **** 
 408:Middlewares/Third_Party/FreeRTOS/Source/event_groups.c **** 				/* It is possible that the event bits were updated between this
 409:Middlewares/Third_Party/FreeRTOS/Source/event_groups.c **** 				task leaving the Blocked state and running again. */
 410:Middlewares/Third_Party/FreeRTOS/Source/event_groups.c **** 				if( prvTestWaitCondition( uxReturn, uxBitsToWaitFor, xWaitForAllBits ) != pdFALSE )
 411:Middlewares/Third_Party/FreeRTOS/Source/event_groups.c **** 				{
 412:Middlewares/Third_Party/FreeRTOS/Source/event_groups.c **** 					if( xClearOnExit != pdFALSE )
 413:Middlewares/Third_Party/FreeRTOS/Source/event_groups.c **** 					{
 414:Middlewares/Third_Party/FreeRTOS/Source/event_groups.c **** 						pxEventBits->uxEventBits &= ~uxBitsToWaitFor;
 415:Middlewares/Third_Party/FreeRTOS/Source/event_groups.c **** 					}
 416:Middlewares/Third_Party/FreeRTOS/Source/event_groups.c **** 					else
 417:Middlewares/Third_Party/FreeRTOS/Source/event_groups.c **** 					{
 418:Middlewares/Third_Party/FreeRTOS/Source/event_groups.c **** 						mtCOVERAGE_TEST_MARKER();
 419:Middlewares/Third_Party/FreeRTOS/Source/event_groups.c **** 					}
 420:Middlewares/Third_Party/FreeRTOS/Source/event_groups.c **** 				}
 421:Middlewares/Third_Party/FreeRTOS/Source/event_groups.c **** 				else
 422:Middlewares/Third_Party/FreeRTOS/Source/event_groups.c **** 				{
 423:Middlewares/Third_Party/FreeRTOS/Source/event_groups.c **** 					mtCOVERAGE_TEST_MARKER();
 424:Middlewares/Third_Party/FreeRTOS/Source/event_groups.c **** 				}
 425:Middlewares/Third_Party/FreeRTOS/Source/event_groups.c **** 				xTimeoutOccurred = pdTRUE;
 426:Middlewares/Third_Party/FreeRTOS/Source/event_groups.c **** 			}
 427:Middlewares/Third_Party/FreeRTOS/Source/event_groups.c **** 			taskEXIT_CRITICAL();
 428:Middlewares/Third_Party/FreeRTOS/Source/event_groups.c **** 		}
 429:Middlewares/Third_Party/FreeRTOS/Source/event_groups.c **** 		else
 430:Middlewares/Third_Party/FreeRTOS/Source/event_groups.c **** 		{
 431:Middlewares/Third_Party/FreeRTOS/Source/event_groups.c **** 			/* The task unblocked because the bits were set. */
ARM GAS  C:\Users\weiyi\AppData\Local\Temp\ccemZue5.s 			page 9


 432:Middlewares/Third_Party/FreeRTOS/Source/event_groups.c **** 		}
 433:Middlewares/Third_Party/FreeRTOS/Source/event_groups.c **** 
 434:Middlewares/Third_Party/FreeRTOS/Source/event_groups.c **** 		/* The task blocked so control bits may have been set. */
 435:Middlewares/Third_Party/FreeRTOS/Source/event_groups.c **** 		uxReturn &= ~eventEVENT_BITS_CONTROL_BYTES;
 436:Middlewares/Third_Party/FreeRTOS/Source/event_groups.c **** 	}
 437:Middlewares/Third_Party/FreeRTOS/Source/event_groups.c **** 	traceEVENT_GROUP_WAIT_BITS_END( xEventGroup, uxBitsToWaitFor, xTimeoutOccurred );
 438:Middlewares/Third_Party/FreeRTOS/Source/event_groups.c **** 
 439:Middlewares/Third_Party/FreeRTOS/Source/event_groups.c **** 	/* Prevent compiler warnings when trace macros are not used. */
 440:Middlewares/Third_Party/FreeRTOS/Source/event_groups.c **** 	( void ) xTimeoutOccurred;
 441:Middlewares/Third_Party/FreeRTOS/Source/event_groups.c **** 
 442:Middlewares/Third_Party/FreeRTOS/Source/event_groups.c **** 	return uxReturn;
 443:Middlewares/Third_Party/FreeRTOS/Source/event_groups.c **** }
 444:Middlewares/Third_Party/FreeRTOS/Source/event_groups.c **** /*-----------------------------------------------------------*/
 445:Middlewares/Third_Party/FreeRTOS/Source/event_groups.c **** 
 446:Middlewares/Third_Party/FreeRTOS/Source/event_groups.c **** EventBits_t xEventGroupClearBits( EventGroupHandle_t xEventGroup, const EventBits_t uxBitsToClear )
 447:Middlewares/Third_Party/FreeRTOS/Source/event_groups.c **** {
 448:Middlewares/Third_Party/FreeRTOS/Source/event_groups.c **** EventGroup_t *pxEventBits = ( EventGroup_t * ) xEventGroup;
 449:Middlewares/Third_Party/FreeRTOS/Source/event_groups.c **** EventBits_t uxReturn;
 450:Middlewares/Third_Party/FreeRTOS/Source/event_groups.c **** 
 451:Middlewares/Third_Party/FreeRTOS/Source/event_groups.c **** 	/* Check the user is not attempting to clear the bits used by the kernel
 452:Middlewares/Third_Party/FreeRTOS/Source/event_groups.c **** 	itself. */
 453:Middlewares/Third_Party/FreeRTOS/Source/event_groups.c **** 	configASSERT( xEventGroup );
 454:Middlewares/Third_Party/FreeRTOS/Source/event_groups.c **** 	configASSERT( ( uxBitsToClear & eventEVENT_BITS_CONTROL_BYTES ) == 0 );
 455:Middlewares/Third_Party/FreeRTOS/Source/event_groups.c **** 
 456:Middlewares/Third_Party/FreeRTOS/Source/event_groups.c **** 	taskENTER_CRITICAL();
 457:Middlewares/Third_Party/FreeRTOS/Source/event_groups.c **** 	{
 458:Middlewares/Third_Party/FreeRTOS/Source/event_groups.c **** 		traceEVENT_GROUP_CLEAR_BITS( xEventGroup, uxBitsToClear );
 459:Middlewares/Third_Party/FreeRTOS/Source/event_groups.c **** 
 460:Middlewares/Third_Party/FreeRTOS/Source/event_groups.c **** 		/* The value returned is the event group value prior to the bits being
 461:Middlewares/Third_Party/FreeRTOS/Source/event_groups.c **** 		cleared. */
 462:Middlewares/Third_Party/FreeRTOS/Source/event_groups.c **** 		uxReturn = pxEventBits->uxEventBits;
 463:Middlewares/Third_Party/FreeRTOS/Source/event_groups.c **** 
 464:Middlewares/Third_Party/FreeRTOS/Source/event_groups.c **** 		/* Clear the bits. */
 465:Middlewares/Third_Party/FreeRTOS/Source/event_groups.c **** 		pxEventBits->uxEventBits &= ~uxBitsToClear;
 466:Middlewares/Third_Party/FreeRTOS/Source/event_groups.c **** 	}
 467:Middlewares/Third_Party/FreeRTOS/Source/event_groups.c **** 	taskEXIT_CRITICAL();
 468:Middlewares/Third_Party/FreeRTOS/Source/event_groups.c **** 
 469:Middlewares/Third_Party/FreeRTOS/Source/event_groups.c **** 	return uxReturn;
 470:Middlewares/Third_Party/FreeRTOS/Source/event_groups.c **** }
 471:Middlewares/Third_Party/FreeRTOS/Source/event_groups.c **** /*-----------------------------------------------------------*/
 472:Middlewares/Third_Party/FreeRTOS/Source/event_groups.c **** 
 473:Middlewares/Third_Party/FreeRTOS/Source/event_groups.c **** #if ( ( configUSE_TRACE_FACILITY == 1 ) && ( INCLUDE_xTimerPendFunctionCall == 1 ) && ( configUSE_T
 474:Middlewares/Third_Party/FreeRTOS/Source/event_groups.c **** 
 475:Middlewares/Third_Party/FreeRTOS/Source/event_groups.c **** 	BaseType_t xEventGroupClearBitsFromISR( EventGroupHandle_t xEventGroup, const EventBits_t uxBitsTo
 476:Middlewares/Third_Party/FreeRTOS/Source/event_groups.c **** 	{
 477:Middlewares/Third_Party/FreeRTOS/Source/event_groups.c **** 		BaseType_t xReturn;
 478:Middlewares/Third_Party/FreeRTOS/Source/event_groups.c **** 
 479:Middlewares/Third_Party/FreeRTOS/Source/event_groups.c **** 		traceEVENT_GROUP_CLEAR_BITS_FROM_ISR( xEventGroup, uxBitsToClear );
 480:Middlewares/Third_Party/FreeRTOS/Source/event_groups.c **** 		xReturn = xTimerPendFunctionCallFromISR( vEventGroupClearBitsCallback, ( void * ) xEventGroup, ( 
 481:Middlewares/Third_Party/FreeRTOS/Source/event_groups.c **** 
 482:Middlewares/Third_Party/FreeRTOS/Source/event_groups.c **** 		return xReturn;
 483:Middlewares/Third_Party/FreeRTOS/Source/event_groups.c **** 	}
 484:Middlewares/Third_Party/FreeRTOS/Source/event_groups.c **** 
 485:Middlewares/Third_Party/FreeRTOS/Source/event_groups.c **** #endif
 486:Middlewares/Third_Party/FreeRTOS/Source/event_groups.c **** /*-----------------------------------------------------------*/
 487:Middlewares/Third_Party/FreeRTOS/Source/event_groups.c **** 
 488:Middlewares/Third_Party/FreeRTOS/Source/event_groups.c **** EventBits_t xEventGroupGetBitsFromISR( EventGroupHandle_t xEventGroup )
ARM GAS  C:\Users\weiyi\AppData\Local\Temp\ccemZue5.s 			page 10


 489:Middlewares/Third_Party/FreeRTOS/Source/event_groups.c **** {
 490:Middlewares/Third_Party/FreeRTOS/Source/event_groups.c **** UBaseType_t uxSavedInterruptStatus;
 491:Middlewares/Third_Party/FreeRTOS/Source/event_groups.c **** EventGroup_t *pxEventBits = ( EventGroup_t * ) xEventGroup;
 492:Middlewares/Third_Party/FreeRTOS/Source/event_groups.c **** EventBits_t uxReturn;
 493:Middlewares/Third_Party/FreeRTOS/Source/event_groups.c **** 
 494:Middlewares/Third_Party/FreeRTOS/Source/event_groups.c **** 	uxSavedInterruptStatus = portSET_INTERRUPT_MASK_FROM_ISR();
 495:Middlewares/Third_Party/FreeRTOS/Source/event_groups.c **** 	{
 496:Middlewares/Third_Party/FreeRTOS/Source/event_groups.c **** 		uxReturn = pxEventBits->uxEventBits;
 497:Middlewares/Third_Party/FreeRTOS/Source/event_groups.c **** 	}
 498:Middlewares/Third_Party/FreeRTOS/Source/event_groups.c **** 	portCLEAR_INTERRUPT_MASK_FROM_ISR( uxSavedInterruptStatus );
 499:Middlewares/Third_Party/FreeRTOS/Source/event_groups.c **** 
 500:Middlewares/Third_Party/FreeRTOS/Source/event_groups.c **** 	return uxReturn;
 501:Middlewares/Third_Party/FreeRTOS/Source/event_groups.c **** }
 502:Middlewares/Third_Party/FreeRTOS/Source/event_groups.c **** /*-----------------------------------------------------------*/
 503:Middlewares/Third_Party/FreeRTOS/Source/event_groups.c **** 
 504:Middlewares/Third_Party/FreeRTOS/Source/event_groups.c **** EventBits_t xEventGroupSetBits( EventGroupHandle_t xEventGroup, const EventBits_t uxBitsToSet )
 505:Middlewares/Third_Party/FreeRTOS/Source/event_groups.c **** {
 506:Middlewares/Third_Party/FreeRTOS/Source/event_groups.c **** ListItem_t *pxListItem, *pxNext;
 507:Middlewares/Third_Party/FreeRTOS/Source/event_groups.c **** ListItem_t const *pxListEnd;
 508:Middlewares/Third_Party/FreeRTOS/Source/event_groups.c **** List_t *pxList;
 509:Middlewares/Third_Party/FreeRTOS/Source/event_groups.c **** EventBits_t uxBitsToClear = 0, uxBitsWaitedFor, uxControlBits;
 510:Middlewares/Third_Party/FreeRTOS/Source/event_groups.c **** EventGroup_t *pxEventBits = ( EventGroup_t * ) xEventGroup;
 511:Middlewares/Third_Party/FreeRTOS/Source/event_groups.c **** BaseType_t xMatchFound = pdFALSE;
 512:Middlewares/Third_Party/FreeRTOS/Source/event_groups.c **** 
 513:Middlewares/Third_Party/FreeRTOS/Source/event_groups.c **** 	/* Check the user is not attempting to set the bits used by the kernel
 514:Middlewares/Third_Party/FreeRTOS/Source/event_groups.c **** 	itself. */
 515:Middlewares/Third_Party/FreeRTOS/Source/event_groups.c **** 	configASSERT( xEventGroup );
 516:Middlewares/Third_Party/FreeRTOS/Source/event_groups.c **** 	configASSERT( ( uxBitsToSet & eventEVENT_BITS_CONTROL_BYTES ) == 0 );
 517:Middlewares/Third_Party/FreeRTOS/Source/event_groups.c **** 
 518:Middlewares/Third_Party/FreeRTOS/Source/event_groups.c **** 	pxList = &( pxEventBits->xTasksWaitingForBits );
 519:Middlewares/Third_Party/FreeRTOS/Source/event_groups.c **** 	pxListEnd = listGET_END_MARKER( pxList ); /*lint !e826 !e740 The mini list structure is used as th
 520:Middlewares/Third_Party/FreeRTOS/Source/event_groups.c **** 	vTaskSuspendAll();
 521:Middlewares/Third_Party/FreeRTOS/Source/event_groups.c **** 	{
 522:Middlewares/Third_Party/FreeRTOS/Source/event_groups.c **** 		traceEVENT_GROUP_SET_BITS( xEventGroup, uxBitsToSet );
 523:Middlewares/Third_Party/FreeRTOS/Source/event_groups.c **** 
 524:Middlewares/Third_Party/FreeRTOS/Source/event_groups.c **** 		pxListItem = listGET_HEAD_ENTRY( pxList );
 525:Middlewares/Third_Party/FreeRTOS/Source/event_groups.c **** 
 526:Middlewares/Third_Party/FreeRTOS/Source/event_groups.c **** 		/* Set the bits. */
 527:Middlewares/Third_Party/FreeRTOS/Source/event_groups.c **** 		pxEventBits->uxEventBits |= uxBitsToSet;
 528:Middlewares/Third_Party/FreeRTOS/Source/event_groups.c **** 
 529:Middlewares/Third_Party/FreeRTOS/Source/event_groups.c **** 		/* See if the new bit value should unblock any tasks. */
 530:Middlewares/Third_Party/FreeRTOS/Source/event_groups.c **** 		while( pxListItem != pxListEnd )
 531:Middlewares/Third_Party/FreeRTOS/Source/event_groups.c **** 		{
 532:Middlewares/Third_Party/FreeRTOS/Source/event_groups.c **** 			pxNext = listGET_NEXT( pxListItem );
 533:Middlewares/Third_Party/FreeRTOS/Source/event_groups.c **** 			uxBitsWaitedFor = listGET_LIST_ITEM_VALUE( pxListItem );
 534:Middlewares/Third_Party/FreeRTOS/Source/event_groups.c **** 			xMatchFound = pdFALSE;
 535:Middlewares/Third_Party/FreeRTOS/Source/event_groups.c **** 
 536:Middlewares/Third_Party/FreeRTOS/Source/event_groups.c **** 			/* Split the bits waited for from the control bits. */
 537:Middlewares/Third_Party/FreeRTOS/Source/event_groups.c **** 			uxControlBits = uxBitsWaitedFor & eventEVENT_BITS_CONTROL_BYTES;
 538:Middlewares/Third_Party/FreeRTOS/Source/event_groups.c **** 			uxBitsWaitedFor &= ~eventEVENT_BITS_CONTROL_BYTES;
 539:Middlewares/Third_Party/FreeRTOS/Source/event_groups.c **** 
 540:Middlewares/Third_Party/FreeRTOS/Source/event_groups.c **** 			if( ( uxControlBits & eventWAIT_FOR_ALL_BITS ) == ( EventBits_t ) 0 )
 541:Middlewares/Third_Party/FreeRTOS/Source/event_groups.c **** 			{
 542:Middlewares/Third_Party/FreeRTOS/Source/event_groups.c **** 				/* Just looking for single bit being set. */
 543:Middlewares/Third_Party/FreeRTOS/Source/event_groups.c **** 				if( ( uxBitsWaitedFor & pxEventBits->uxEventBits ) != ( EventBits_t ) 0 )
 544:Middlewares/Third_Party/FreeRTOS/Source/event_groups.c **** 				{
 545:Middlewares/Third_Party/FreeRTOS/Source/event_groups.c **** 					xMatchFound = pdTRUE;
ARM GAS  C:\Users\weiyi\AppData\Local\Temp\ccemZue5.s 			page 11


 546:Middlewares/Third_Party/FreeRTOS/Source/event_groups.c **** 				}
 547:Middlewares/Third_Party/FreeRTOS/Source/event_groups.c **** 				else
 548:Middlewares/Third_Party/FreeRTOS/Source/event_groups.c **** 				{
 549:Middlewares/Third_Party/FreeRTOS/Source/event_groups.c **** 					mtCOVERAGE_TEST_MARKER();
 550:Middlewares/Third_Party/FreeRTOS/Source/event_groups.c **** 				}
 551:Middlewares/Third_Party/FreeRTOS/Source/event_groups.c **** 			}
 552:Middlewares/Third_Party/FreeRTOS/Source/event_groups.c **** 			else if( ( uxBitsWaitedFor & pxEventBits->uxEventBits ) == uxBitsWaitedFor )
 553:Middlewares/Third_Party/FreeRTOS/Source/event_groups.c **** 			{
 554:Middlewares/Third_Party/FreeRTOS/Source/event_groups.c **** 				/* All bits are set. */
 555:Middlewares/Third_Party/FreeRTOS/Source/event_groups.c **** 				xMatchFound = pdTRUE;
 556:Middlewares/Third_Party/FreeRTOS/Source/event_groups.c **** 			}
 557:Middlewares/Third_Party/FreeRTOS/Source/event_groups.c **** 			else
 558:Middlewares/Third_Party/FreeRTOS/Source/event_groups.c **** 			{
 559:Middlewares/Third_Party/FreeRTOS/Source/event_groups.c **** 				/* Need all bits to be set, but not all the bits were set. */
 560:Middlewares/Third_Party/FreeRTOS/Source/event_groups.c **** 			}
 561:Middlewares/Third_Party/FreeRTOS/Source/event_groups.c **** 
 562:Middlewares/Third_Party/FreeRTOS/Source/event_groups.c **** 			if( xMatchFound != pdFALSE )
 563:Middlewares/Third_Party/FreeRTOS/Source/event_groups.c **** 			{
 564:Middlewares/Third_Party/FreeRTOS/Source/event_groups.c **** 				/* The bits match.  Should the bits be cleared on exit? */
 565:Middlewares/Third_Party/FreeRTOS/Source/event_groups.c **** 				if( ( uxControlBits & eventCLEAR_EVENTS_ON_EXIT_BIT ) != ( EventBits_t ) 0 )
 566:Middlewares/Third_Party/FreeRTOS/Source/event_groups.c **** 				{
 567:Middlewares/Third_Party/FreeRTOS/Source/event_groups.c **** 					uxBitsToClear |= uxBitsWaitedFor;
 568:Middlewares/Third_Party/FreeRTOS/Source/event_groups.c **** 				}
 569:Middlewares/Third_Party/FreeRTOS/Source/event_groups.c **** 				else
 570:Middlewares/Third_Party/FreeRTOS/Source/event_groups.c **** 				{
 571:Middlewares/Third_Party/FreeRTOS/Source/event_groups.c **** 					mtCOVERAGE_TEST_MARKER();
 572:Middlewares/Third_Party/FreeRTOS/Source/event_groups.c **** 				}
 573:Middlewares/Third_Party/FreeRTOS/Source/event_groups.c **** 
 574:Middlewares/Third_Party/FreeRTOS/Source/event_groups.c **** 				/* Store the actual event flag value in the task's event list
 575:Middlewares/Third_Party/FreeRTOS/Source/event_groups.c **** 				item before removing the task from the event list.  The
 576:Middlewares/Third_Party/FreeRTOS/Source/event_groups.c **** 				eventUNBLOCKED_DUE_TO_BIT_SET bit is set so the task knows
 577:Middlewares/Third_Party/FreeRTOS/Source/event_groups.c **** 				that is was unblocked due to its required bits matching, rather
 578:Middlewares/Third_Party/FreeRTOS/Source/event_groups.c **** 				than because it timed out. */
 579:Middlewares/Third_Party/FreeRTOS/Source/event_groups.c **** 				vTaskRemoveFromUnorderedEventList( pxListItem, pxEventBits->uxEventBits | eventUNBLOCKED_DUE_TO
 580:Middlewares/Third_Party/FreeRTOS/Source/event_groups.c **** 			}
 581:Middlewares/Third_Party/FreeRTOS/Source/event_groups.c **** 
 582:Middlewares/Third_Party/FreeRTOS/Source/event_groups.c **** 			/* Move onto the next list item.  Note pxListItem->pxNext is not
 583:Middlewares/Third_Party/FreeRTOS/Source/event_groups.c **** 			used here as the list item may have been removed from the event list
 584:Middlewares/Third_Party/FreeRTOS/Source/event_groups.c **** 			and inserted into the ready/pending reading list. */
 585:Middlewares/Third_Party/FreeRTOS/Source/event_groups.c **** 			pxListItem = pxNext;
 586:Middlewares/Third_Party/FreeRTOS/Source/event_groups.c **** 		}
 587:Middlewares/Third_Party/FreeRTOS/Source/event_groups.c **** 
 588:Middlewares/Third_Party/FreeRTOS/Source/event_groups.c **** 		/* Clear any bits that matched when the eventCLEAR_EVENTS_ON_EXIT_BIT
 589:Middlewares/Third_Party/FreeRTOS/Source/event_groups.c **** 		bit was set in the control word. */
 590:Middlewares/Third_Party/FreeRTOS/Source/event_groups.c **** 		pxEventBits->uxEventBits &= ~uxBitsToClear;
 591:Middlewares/Third_Party/FreeRTOS/Source/event_groups.c **** 	}
 592:Middlewares/Third_Party/FreeRTOS/Source/event_groups.c **** 	( void ) xTaskResumeAll();
 593:Middlewares/Third_Party/FreeRTOS/Source/event_groups.c **** 
 594:Middlewares/Third_Party/FreeRTOS/Source/event_groups.c **** 	return pxEventBits->uxEventBits;
 595:Middlewares/Third_Party/FreeRTOS/Source/event_groups.c **** }
 596:Middlewares/Third_Party/FreeRTOS/Source/event_groups.c **** /*-----------------------------------------------------------*/
 597:Middlewares/Third_Party/FreeRTOS/Source/event_groups.c **** 
 598:Middlewares/Third_Party/FreeRTOS/Source/event_groups.c **** void vEventGroupDelete( EventGroupHandle_t xEventGroup )
 599:Middlewares/Third_Party/FreeRTOS/Source/event_groups.c **** {
 600:Middlewares/Third_Party/FreeRTOS/Source/event_groups.c **** EventGroup_t *pxEventBits = ( EventGroup_t * ) xEventGroup;
 601:Middlewares/Third_Party/FreeRTOS/Source/event_groups.c **** const List_t *pxTasksWaitingForBits = &( pxEventBits->xTasksWaitingForBits );
 602:Middlewares/Third_Party/FreeRTOS/Source/event_groups.c **** 
ARM GAS  C:\Users\weiyi\AppData\Local\Temp\ccemZue5.s 			page 12


 603:Middlewares/Third_Party/FreeRTOS/Source/event_groups.c **** 	vTaskSuspendAll();
 604:Middlewares/Third_Party/FreeRTOS/Source/event_groups.c **** 	{
 605:Middlewares/Third_Party/FreeRTOS/Source/event_groups.c **** 		traceEVENT_GROUP_DELETE( xEventGroup );
 606:Middlewares/Third_Party/FreeRTOS/Source/event_groups.c **** 
 607:Middlewares/Third_Party/FreeRTOS/Source/event_groups.c **** 		while( listCURRENT_LIST_LENGTH( pxTasksWaitingForBits ) > ( UBaseType_t ) 0 )
 608:Middlewares/Third_Party/FreeRTOS/Source/event_groups.c **** 		{
 609:Middlewares/Third_Party/FreeRTOS/Source/event_groups.c **** 			/* Unblock the task, returning 0 as the event list is being deleted
 610:Middlewares/Third_Party/FreeRTOS/Source/event_groups.c **** 			and cannot therefore have any bits set. */
 611:Middlewares/Third_Party/FreeRTOS/Source/event_groups.c **** 			configASSERT( pxTasksWaitingForBits->xListEnd.pxNext != ( const ListItem_t * ) &( pxTasksWaiting
 612:Middlewares/Third_Party/FreeRTOS/Source/event_groups.c **** 			vTaskRemoveFromUnorderedEventList( pxTasksWaitingForBits->xListEnd.pxNext, eventUNBLOCKED_DUE_TO
 613:Middlewares/Third_Party/FreeRTOS/Source/event_groups.c **** 		}
 614:Middlewares/Third_Party/FreeRTOS/Source/event_groups.c **** 
 615:Middlewares/Third_Party/FreeRTOS/Source/event_groups.c **** 		#if( ( configSUPPORT_DYNAMIC_ALLOCATION == 1 ) && ( configSUPPORT_STATIC_ALLOCATION == 0 ) )
 616:Middlewares/Third_Party/FreeRTOS/Source/event_groups.c **** 		{
 617:Middlewares/Third_Party/FreeRTOS/Source/event_groups.c **** 			/* The event group can only have been allocated dynamically - free
 618:Middlewares/Third_Party/FreeRTOS/Source/event_groups.c **** 			it again. */
 619:Middlewares/Third_Party/FreeRTOS/Source/event_groups.c **** 			vPortFree( pxEventBits );
 620:Middlewares/Third_Party/FreeRTOS/Source/event_groups.c **** 		}
 621:Middlewares/Third_Party/FreeRTOS/Source/event_groups.c **** 		#elif( ( configSUPPORT_DYNAMIC_ALLOCATION == 1 ) && ( configSUPPORT_STATIC_ALLOCATION == 1 ) )
 622:Middlewares/Third_Party/FreeRTOS/Source/event_groups.c **** 		{
 623:Middlewares/Third_Party/FreeRTOS/Source/event_groups.c **** 			/* The event group could have been allocated statically or
 624:Middlewares/Third_Party/FreeRTOS/Source/event_groups.c **** 			dynamically, so check before attempting to free the memory. */
 625:Middlewares/Third_Party/FreeRTOS/Source/event_groups.c **** 			if( pxEventBits->ucStaticallyAllocated == ( uint8_t ) pdFALSE )
 626:Middlewares/Third_Party/FreeRTOS/Source/event_groups.c **** 			{
 627:Middlewares/Third_Party/FreeRTOS/Source/event_groups.c **** 				vPortFree( pxEventBits );
 628:Middlewares/Third_Party/FreeRTOS/Source/event_groups.c **** 			}
 629:Middlewares/Third_Party/FreeRTOS/Source/event_groups.c **** 			else
 630:Middlewares/Third_Party/FreeRTOS/Source/event_groups.c **** 			{
 631:Middlewares/Third_Party/FreeRTOS/Source/event_groups.c **** 				mtCOVERAGE_TEST_MARKER();
 632:Middlewares/Third_Party/FreeRTOS/Source/event_groups.c **** 			}
 633:Middlewares/Third_Party/FreeRTOS/Source/event_groups.c **** 		}
 634:Middlewares/Third_Party/FreeRTOS/Source/event_groups.c **** 		#endif /* configSUPPORT_DYNAMIC_ALLOCATION */
 635:Middlewares/Third_Party/FreeRTOS/Source/event_groups.c **** 	}
 636:Middlewares/Third_Party/FreeRTOS/Source/event_groups.c **** 	( void ) xTaskResumeAll();
 637:Middlewares/Third_Party/FreeRTOS/Source/event_groups.c **** }
 638:Middlewares/Third_Party/FreeRTOS/Source/event_groups.c **** /*-----------------------------------------------------------*/
 639:Middlewares/Third_Party/FreeRTOS/Source/event_groups.c **** 
 640:Middlewares/Third_Party/FreeRTOS/Source/event_groups.c **** /* For internal use only - execute a 'set bits' command that was pended from
 641:Middlewares/Third_Party/FreeRTOS/Source/event_groups.c **** an interrupt. */
 642:Middlewares/Third_Party/FreeRTOS/Source/event_groups.c **** void vEventGroupSetBitsCallback( void *pvEventGroup, const uint32_t ulBitsToSet )
 643:Middlewares/Third_Party/FreeRTOS/Source/event_groups.c **** {
 644:Middlewares/Third_Party/FreeRTOS/Source/event_groups.c **** 	( void ) xEventGroupSetBits( pvEventGroup, ( EventBits_t ) ulBitsToSet );
 645:Middlewares/Third_Party/FreeRTOS/Source/event_groups.c **** }
 646:Middlewares/Third_Party/FreeRTOS/Source/event_groups.c **** /*-----------------------------------------------------------*/
 647:Middlewares/Third_Party/FreeRTOS/Source/event_groups.c **** 
 648:Middlewares/Third_Party/FreeRTOS/Source/event_groups.c **** /* For internal use only - execute a 'clear bits' command that was pended from
 649:Middlewares/Third_Party/FreeRTOS/Source/event_groups.c **** an interrupt. */
 650:Middlewares/Third_Party/FreeRTOS/Source/event_groups.c **** void vEventGroupClearBitsCallback( void *pvEventGroup, const uint32_t ulBitsToClear )
 651:Middlewares/Third_Party/FreeRTOS/Source/event_groups.c **** {
 652:Middlewares/Third_Party/FreeRTOS/Source/event_groups.c **** 	( void ) xEventGroupClearBits( pvEventGroup, ( EventBits_t ) ulBitsToClear );
 653:Middlewares/Third_Party/FreeRTOS/Source/event_groups.c **** }
 654:Middlewares/Third_Party/FreeRTOS/Source/event_groups.c **** /*-----------------------------------------------------------*/
 655:Middlewares/Third_Party/FreeRTOS/Source/event_groups.c **** 
 656:Middlewares/Third_Party/FreeRTOS/Source/event_groups.c **** static BaseType_t prvTestWaitCondition( const EventBits_t uxCurrentEventBits, const EventBits_t uxB
 657:Middlewares/Third_Party/FreeRTOS/Source/event_groups.c **** {
  27              		.loc 1 657 1 view -0
  28              		.cfi_startproc
ARM GAS  C:\Users\weiyi\AppData\Local\Temp\ccemZue5.s 			page 13


  29              		@ args = 0, pretend = 0, frame = 0
  30              		@ frame_needed = 0, uses_anonymous_args = 0
  31              		@ link register save eliminated.
 658:Middlewares/Third_Party/FreeRTOS/Source/event_groups.c **** BaseType_t xWaitConditionMet = pdFALSE;
  32              		.loc 1 658 1 view .LVU1
 659:Middlewares/Third_Party/FreeRTOS/Source/event_groups.c **** 
 660:Middlewares/Third_Party/FreeRTOS/Source/event_groups.c **** 	if( xWaitForAllBits == pdFALSE )
  33              		.loc 1 660 2 view .LVU2
  34              		.loc 1 660 4 is_stmt 0 view .LVU3
  35 0000 1AB9     		cbnz	r2, .L2
 661:Middlewares/Third_Party/FreeRTOS/Source/event_groups.c **** 	{
 662:Middlewares/Third_Party/FreeRTOS/Source/event_groups.c **** 		/* Task only has to wait for one bit within uxBitsToWaitFor to be
 663:Middlewares/Third_Party/FreeRTOS/Source/event_groups.c **** 		set.  Is one already set? */
 664:Middlewares/Third_Party/FreeRTOS/Source/event_groups.c **** 		if( ( uxCurrentEventBits & uxBitsToWaitFor ) != ( EventBits_t ) 0 )
  36              		.loc 1 664 3 is_stmt 1 view .LVU4
  37              		.loc 1 664 5 is_stmt 0 view .LVU5
  38 0002 0842     		tst	r0, r1
  39 0004 06D1     		bne	.L4
 658:Middlewares/Third_Party/FreeRTOS/Source/event_groups.c **** 
  40              		.loc 1 658 12 view .LVU6
  41 0006 1046     		mov	r0, r2
  42              	.LVL1:
 658:Middlewares/Third_Party/FreeRTOS/Source/event_groups.c **** 
  43              		.loc 1 658 12 view .LVU7
  44 0008 7047     		bx	lr
  45              	.LVL2:
  46              	.L2:
 665:Middlewares/Third_Party/FreeRTOS/Source/event_groups.c **** 		{
 666:Middlewares/Third_Party/FreeRTOS/Source/event_groups.c **** 			xWaitConditionMet = pdTRUE;
 667:Middlewares/Third_Party/FreeRTOS/Source/event_groups.c **** 		}
 668:Middlewares/Third_Party/FreeRTOS/Source/event_groups.c **** 		else
 669:Middlewares/Third_Party/FreeRTOS/Source/event_groups.c **** 		{
 670:Middlewares/Third_Party/FreeRTOS/Source/event_groups.c **** 			mtCOVERAGE_TEST_MARKER();
 671:Middlewares/Third_Party/FreeRTOS/Source/event_groups.c **** 		}
 672:Middlewares/Third_Party/FreeRTOS/Source/event_groups.c **** 	}
 673:Middlewares/Third_Party/FreeRTOS/Source/event_groups.c **** 	else
 674:Middlewares/Third_Party/FreeRTOS/Source/event_groups.c **** 	{
 675:Middlewares/Third_Party/FreeRTOS/Source/event_groups.c **** 		/* Task has to wait for all the bits in uxBitsToWaitFor to be set.
 676:Middlewares/Third_Party/FreeRTOS/Source/event_groups.c **** 		Are they set already? */
 677:Middlewares/Third_Party/FreeRTOS/Source/event_groups.c **** 		if( ( uxCurrentEventBits & uxBitsToWaitFor ) == uxBitsToWaitFor )
  47              		.loc 1 677 3 is_stmt 1 view .LVU8
  48              		.loc 1 677 5 is_stmt 0 view .LVU9
  49 000a 31EA0003 		bics	r3, r1, r0
  50 000e 03D0     		beq	.L5
 658:Middlewares/Third_Party/FreeRTOS/Source/event_groups.c **** 
  51              		.loc 1 658 12 view .LVU10
  52 0010 0020     		movs	r0, #0
  53              	.LVL3:
 658:Middlewares/Third_Party/FreeRTOS/Source/event_groups.c **** 
  54              		.loc 1 658 12 view .LVU11
  55 0012 7047     		bx	lr
  56              	.LVL4:
  57              	.L4:
 666:Middlewares/Third_Party/FreeRTOS/Source/event_groups.c **** 		}
  58              		.loc 1 666 22 view .LVU12
  59 0014 0120     		movs	r0, #1
  60              	.LVL5:
ARM GAS  C:\Users\weiyi\AppData\Local\Temp\ccemZue5.s 			page 14


 666:Middlewares/Third_Party/FreeRTOS/Source/event_groups.c **** 		}
  61              		.loc 1 666 22 view .LVU13
  62 0016 7047     		bx	lr
  63              	.LVL6:
  64              	.L5:
 678:Middlewares/Third_Party/FreeRTOS/Source/event_groups.c **** 		{
 679:Middlewares/Third_Party/FreeRTOS/Source/event_groups.c **** 			xWaitConditionMet = pdTRUE;
  65              		.loc 1 679 22 view .LVU14
  66 0018 0120     		movs	r0, #1
  67              	.LVL7:
 680:Middlewares/Third_Party/FreeRTOS/Source/event_groups.c **** 		}
 681:Middlewares/Third_Party/FreeRTOS/Source/event_groups.c **** 		else
 682:Middlewares/Third_Party/FreeRTOS/Source/event_groups.c **** 		{
 683:Middlewares/Third_Party/FreeRTOS/Source/event_groups.c **** 			mtCOVERAGE_TEST_MARKER();
  68              		.loc 1 683 28 is_stmt 1 view .LVU15
 684:Middlewares/Third_Party/FreeRTOS/Source/event_groups.c **** 		}
 685:Middlewares/Third_Party/FreeRTOS/Source/event_groups.c **** 	}
 686:Middlewares/Third_Party/FreeRTOS/Source/event_groups.c **** 
 687:Middlewares/Third_Party/FreeRTOS/Source/event_groups.c **** 	return xWaitConditionMet;
  69              		.loc 1 687 2 view .LVU16
 688:Middlewares/Third_Party/FreeRTOS/Source/event_groups.c **** }
  70              		.loc 1 688 1 is_stmt 0 view .LVU17
  71 001a 7047     		bx	lr
  72              		.cfi_endproc
  73              	.LFE15:
  75              		.section	.text.xEventGroupCreateStatic,"ax",%progbits
  76              		.align	1
  77              		.global	xEventGroupCreateStatic
  78              		.syntax unified
  79              		.thumb
  80              		.thumb_func
  81              		.fpu softvfp
  83              	xEventGroupCreateStatic:
  84              	.LVL8:
  85              	.LFB4:
  94:Middlewares/Third_Party/FreeRTOS/Source/event_groups.c **** 	EventGroup_t *pxEventBits;
  86              		.loc 1 94 2 is_stmt 1 view -0
  87              		.cfi_startproc
  88              		@ args = 0, pretend = 0, frame = 8
  89              		@ frame_needed = 0, uses_anonymous_args = 0
  95:Middlewares/Third_Party/FreeRTOS/Source/event_groups.c **** 
  90              		.loc 1 95 2 view .LVU19
  98:Middlewares/Third_Party/FreeRTOS/Source/event_groups.c **** 
  91              		.loc 1 98 3 view .LVU20
  92 0000 80B1     		cbz	r0, .L13
  94:Middlewares/Third_Party/FreeRTOS/Source/event_groups.c **** 	EventGroup_t *pxEventBits;
  93              		.loc 1 94 2 is_stmt 0 discriminator 2 view .LVU21
  94 0002 10B5     		push	{r4, lr}
  95              	.LCFI0:
  96              		.cfi_def_cfa_offset 8
  97              		.cfi_offset 4, -8
  98              		.cfi_offset 14, -4
  99 0004 82B0     		sub	sp, sp, #8
 100              	.LCFI1:
 101              		.cfi_def_cfa_offset 16
 102 0006 0446     		mov	r4, r0
  98:Middlewares/Third_Party/FreeRTOS/Source/event_groups.c **** 
ARM GAS  C:\Users\weiyi\AppData\Local\Temp\ccemZue5.s 			page 15


 103              		.loc 1 98 37 is_stmt 1 discriminator 2 view .LVU22
 104              	.LBB36:
 105:Middlewares/Third_Party/FreeRTOS/Source/event_groups.c **** 			configASSERT( xSize == sizeof( EventGroup_t ) );
 105              		.loc 1 105 4 discriminator 2 view .LVU23
 105:Middlewares/Third_Party/FreeRTOS/Source/event_groups.c **** 			configASSERT( xSize == sizeof( EventGroup_t ) );
 106              		.loc 1 105 20 is_stmt 0 discriminator 2 view .LVU24
 107 0008 2023     		movs	r3, #32
 108 000a 0193     		str	r3, [sp, #4]
 106:Middlewares/Third_Party/FreeRTOS/Source/event_groups.c **** 		}
 109              		.loc 1 106 4 is_stmt 1 discriminator 2 view .LVU25
 110 000c 019B     		ldr	r3, [sp, #4]
 111 000e 202B     		cmp	r3, #32
 112 0010 11D0     		beq	.L9
 106:Middlewares/Third_Party/FreeRTOS/Source/event_groups.c **** 		}
 113              		.loc 1 106 4 view .LVU26
 114              	.LBB37:
 115              	.LBI37:
 116              		.file 2 "Middlewares/Third_Party/FreeRTOS/Source/portable/GCC/ARM_CM3/portmacro.h"
   1:Middlewares/Third_Party/FreeRTOS/Source/portable/GCC/ARM_CM3/portmacro.h **** /*
   2:Middlewares/Third_Party/FreeRTOS/Source/portable/GCC/ARM_CM3/portmacro.h ****  * FreeRTOS Kernel V10.0.1
   3:Middlewares/Third_Party/FreeRTOS/Source/portable/GCC/ARM_CM3/portmacro.h ****  * Copyright (C) 2017 Amazon.com, Inc. or its affiliates.  All Rights Reserved.
   4:Middlewares/Third_Party/FreeRTOS/Source/portable/GCC/ARM_CM3/portmacro.h ****  *
   5:Middlewares/Third_Party/FreeRTOS/Source/portable/GCC/ARM_CM3/portmacro.h ****  * Permission is hereby granted, free of charge, to any person obtaining a copy of
   6:Middlewares/Third_Party/FreeRTOS/Source/portable/GCC/ARM_CM3/portmacro.h ****  * this software and associated documentation files (the "Software"), to deal in
   7:Middlewares/Third_Party/FreeRTOS/Source/portable/GCC/ARM_CM3/portmacro.h ****  * the Software without restriction, including without limitation the rights to
   8:Middlewares/Third_Party/FreeRTOS/Source/portable/GCC/ARM_CM3/portmacro.h ****  * use, copy, modify, merge, publish, distribute, sublicense, and/or sell copies of
   9:Middlewares/Third_Party/FreeRTOS/Source/portable/GCC/ARM_CM3/portmacro.h ****  * the Software, and to permit persons to whom the Software is furnished to do so,
  10:Middlewares/Third_Party/FreeRTOS/Source/portable/GCC/ARM_CM3/portmacro.h ****  * subject to the following conditions:
  11:Middlewares/Third_Party/FreeRTOS/Source/portable/GCC/ARM_CM3/portmacro.h ****  *
  12:Middlewares/Third_Party/FreeRTOS/Source/portable/GCC/ARM_CM3/portmacro.h ****  * The above copyright notice and this permission notice shall be included in all
  13:Middlewares/Third_Party/FreeRTOS/Source/portable/GCC/ARM_CM3/portmacro.h ****  * copies or substantial portions of the Software.
  14:Middlewares/Third_Party/FreeRTOS/Source/portable/GCC/ARM_CM3/portmacro.h ****  *
  15:Middlewares/Third_Party/FreeRTOS/Source/portable/GCC/ARM_CM3/portmacro.h ****  * THE SOFTWARE IS PROVIDED "AS IS", WITHOUT WARRANTY OF ANY KIND, EXPRESS OR
  16:Middlewares/Third_Party/FreeRTOS/Source/portable/GCC/ARM_CM3/portmacro.h ****  * IMPLIED, INCLUDING BUT NOT LIMITED TO THE WARRANTIES OF MERCHANTABILITY, FITNESS
  17:Middlewares/Third_Party/FreeRTOS/Source/portable/GCC/ARM_CM3/portmacro.h ****  * FOR A PARTICULAR PURPOSE AND NONINFRINGEMENT. IN NO EVENT SHALL THE AUTHORS OR
  18:Middlewares/Third_Party/FreeRTOS/Source/portable/GCC/ARM_CM3/portmacro.h ****  * COPYRIGHT HOLDERS BE LIABLE FOR ANY CLAIM, DAMAGES OR OTHER LIABILITY, WHETHER
  19:Middlewares/Third_Party/FreeRTOS/Source/portable/GCC/ARM_CM3/portmacro.h ****  * IN AN ACTION OF CONTRACT, TORT OR OTHERWISE, ARISING FROM, OUT OF OR IN
  20:Middlewares/Third_Party/FreeRTOS/Source/portable/GCC/ARM_CM3/portmacro.h ****  * CONNECTION WITH THE SOFTWARE OR THE USE OR OTHER DEALINGS IN THE SOFTWARE.
  21:Middlewares/Third_Party/FreeRTOS/Source/portable/GCC/ARM_CM3/portmacro.h ****  *
  22:Middlewares/Third_Party/FreeRTOS/Source/portable/GCC/ARM_CM3/portmacro.h ****  * http://www.FreeRTOS.org
  23:Middlewares/Third_Party/FreeRTOS/Source/portable/GCC/ARM_CM3/portmacro.h ****  * http://aws.amazon.com/freertos
  24:Middlewares/Third_Party/FreeRTOS/Source/portable/GCC/ARM_CM3/portmacro.h ****  *
  25:Middlewares/Third_Party/FreeRTOS/Source/portable/GCC/ARM_CM3/portmacro.h ****  * 1 tab == 4 spaces!
  26:Middlewares/Third_Party/FreeRTOS/Source/portable/GCC/ARM_CM3/portmacro.h ****  */
  27:Middlewares/Third_Party/FreeRTOS/Source/portable/GCC/ARM_CM3/portmacro.h **** 
  28:Middlewares/Third_Party/FreeRTOS/Source/portable/GCC/ARM_CM3/portmacro.h **** 
  29:Middlewares/Third_Party/FreeRTOS/Source/portable/GCC/ARM_CM3/portmacro.h **** #ifndef PORTMACRO_H
  30:Middlewares/Third_Party/FreeRTOS/Source/portable/GCC/ARM_CM3/portmacro.h **** #define PORTMACRO_H
  31:Middlewares/Third_Party/FreeRTOS/Source/portable/GCC/ARM_CM3/portmacro.h **** 
  32:Middlewares/Third_Party/FreeRTOS/Source/portable/GCC/ARM_CM3/portmacro.h **** #ifdef __cplusplus
  33:Middlewares/Third_Party/FreeRTOS/Source/portable/GCC/ARM_CM3/portmacro.h **** extern "C" {
  34:Middlewares/Third_Party/FreeRTOS/Source/portable/GCC/ARM_CM3/portmacro.h **** #endif
  35:Middlewares/Third_Party/FreeRTOS/Source/portable/GCC/ARM_CM3/portmacro.h **** 
  36:Middlewares/Third_Party/FreeRTOS/Source/portable/GCC/ARM_CM3/portmacro.h **** /*-----------------------------------------------------------
  37:Middlewares/Third_Party/FreeRTOS/Source/portable/GCC/ARM_CM3/portmacro.h ****  * Port specific definitions.
  38:Middlewares/Third_Party/FreeRTOS/Source/portable/GCC/ARM_CM3/portmacro.h ****  *
  39:Middlewares/Third_Party/FreeRTOS/Source/portable/GCC/ARM_CM3/portmacro.h ****  * The settings in this file configure FreeRTOS correctly for the
ARM GAS  C:\Users\weiyi\AppData\Local\Temp\ccemZue5.s 			page 16


  40:Middlewares/Third_Party/FreeRTOS/Source/portable/GCC/ARM_CM3/portmacro.h ****  * given hardware and compiler.
  41:Middlewares/Third_Party/FreeRTOS/Source/portable/GCC/ARM_CM3/portmacro.h ****  *
  42:Middlewares/Third_Party/FreeRTOS/Source/portable/GCC/ARM_CM3/portmacro.h ****  * These settings should not be altered.
  43:Middlewares/Third_Party/FreeRTOS/Source/portable/GCC/ARM_CM3/portmacro.h ****  *-----------------------------------------------------------
  44:Middlewares/Third_Party/FreeRTOS/Source/portable/GCC/ARM_CM3/portmacro.h ****  */
  45:Middlewares/Third_Party/FreeRTOS/Source/portable/GCC/ARM_CM3/portmacro.h **** 
  46:Middlewares/Third_Party/FreeRTOS/Source/portable/GCC/ARM_CM3/portmacro.h **** /* Type definitions. */
  47:Middlewares/Third_Party/FreeRTOS/Source/portable/GCC/ARM_CM3/portmacro.h **** #define portCHAR		char
  48:Middlewares/Third_Party/FreeRTOS/Source/portable/GCC/ARM_CM3/portmacro.h **** #define portFLOAT		float
  49:Middlewares/Third_Party/FreeRTOS/Source/portable/GCC/ARM_CM3/portmacro.h **** #define portDOUBLE		double
  50:Middlewares/Third_Party/FreeRTOS/Source/portable/GCC/ARM_CM3/portmacro.h **** #define portLONG		long
  51:Middlewares/Third_Party/FreeRTOS/Source/portable/GCC/ARM_CM3/portmacro.h **** #define portSHORT		short
  52:Middlewares/Third_Party/FreeRTOS/Source/portable/GCC/ARM_CM3/portmacro.h **** #define portSTACK_TYPE	uint32_t
  53:Middlewares/Third_Party/FreeRTOS/Source/portable/GCC/ARM_CM3/portmacro.h **** #define portBASE_TYPE	long
  54:Middlewares/Third_Party/FreeRTOS/Source/portable/GCC/ARM_CM3/portmacro.h **** 
  55:Middlewares/Third_Party/FreeRTOS/Source/portable/GCC/ARM_CM3/portmacro.h **** typedef portSTACK_TYPE StackType_t;
  56:Middlewares/Third_Party/FreeRTOS/Source/portable/GCC/ARM_CM3/portmacro.h **** typedef long BaseType_t;
  57:Middlewares/Third_Party/FreeRTOS/Source/portable/GCC/ARM_CM3/portmacro.h **** typedef unsigned long UBaseType_t;
  58:Middlewares/Third_Party/FreeRTOS/Source/portable/GCC/ARM_CM3/portmacro.h **** 
  59:Middlewares/Third_Party/FreeRTOS/Source/portable/GCC/ARM_CM3/portmacro.h **** #if( configUSE_16_BIT_TICKS == 1 )
  60:Middlewares/Third_Party/FreeRTOS/Source/portable/GCC/ARM_CM3/portmacro.h **** 	typedef uint16_t TickType_t;
  61:Middlewares/Third_Party/FreeRTOS/Source/portable/GCC/ARM_CM3/portmacro.h **** 	#define portMAX_DELAY ( TickType_t ) 0xffff
  62:Middlewares/Third_Party/FreeRTOS/Source/portable/GCC/ARM_CM3/portmacro.h **** #else
  63:Middlewares/Third_Party/FreeRTOS/Source/portable/GCC/ARM_CM3/portmacro.h **** 	typedef uint32_t TickType_t;
  64:Middlewares/Third_Party/FreeRTOS/Source/portable/GCC/ARM_CM3/portmacro.h **** 	#define portMAX_DELAY ( TickType_t ) 0xffffffffUL
  65:Middlewares/Third_Party/FreeRTOS/Source/portable/GCC/ARM_CM3/portmacro.h **** 
  66:Middlewares/Third_Party/FreeRTOS/Source/portable/GCC/ARM_CM3/portmacro.h **** 	/* 32-bit tick type on a 32-bit architecture, so reads of the tick count do
  67:Middlewares/Third_Party/FreeRTOS/Source/portable/GCC/ARM_CM3/portmacro.h **** 	not need to be guarded with a critical section. */
  68:Middlewares/Third_Party/FreeRTOS/Source/portable/GCC/ARM_CM3/portmacro.h **** 	#define portTICK_TYPE_IS_ATOMIC 1
  69:Middlewares/Third_Party/FreeRTOS/Source/portable/GCC/ARM_CM3/portmacro.h **** #endif
  70:Middlewares/Third_Party/FreeRTOS/Source/portable/GCC/ARM_CM3/portmacro.h **** /*-----------------------------------------------------------*/
  71:Middlewares/Third_Party/FreeRTOS/Source/portable/GCC/ARM_CM3/portmacro.h **** 
  72:Middlewares/Third_Party/FreeRTOS/Source/portable/GCC/ARM_CM3/portmacro.h **** /* Architecture specifics. */
  73:Middlewares/Third_Party/FreeRTOS/Source/portable/GCC/ARM_CM3/portmacro.h **** #define portSTACK_GROWTH			( -1 )
  74:Middlewares/Third_Party/FreeRTOS/Source/portable/GCC/ARM_CM3/portmacro.h **** #define portTICK_PERIOD_MS			( ( TickType_t ) 1000 / configTICK_RATE_HZ )
  75:Middlewares/Third_Party/FreeRTOS/Source/portable/GCC/ARM_CM3/portmacro.h **** #define portBYTE_ALIGNMENT			8
  76:Middlewares/Third_Party/FreeRTOS/Source/portable/GCC/ARM_CM3/portmacro.h **** /*-----------------------------------------------------------*/
  77:Middlewares/Third_Party/FreeRTOS/Source/portable/GCC/ARM_CM3/portmacro.h **** 
  78:Middlewares/Third_Party/FreeRTOS/Source/portable/GCC/ARM_CM3/portmacro.h **** /* Scheduler utilities. */
  79:Middlewares/Third_Party/FreeRTOS/Source/portable/GCC/ARM_CM3/portmacro.h **** #define portYIELD() 															\
  80:Middlewares/Third_Party/FreeRTOS/Source/portable/GCC/ARM_CM3/portmacro.h **** {																				\
  81:Middlewares/Third_Party/FreeRTOS/Source/portable/GCC/ARM_CM3/portmacro.h **** 	/* Set a PendSV to request a context switch. */								\
  82:Middlewares/Third_Party/FreeRTOS/Source/portable/GCC/ARM_CM3/portmacro.h **** 	portNVIC_INT_CTRL_REG = portNVIC_PENDSVSET_BIT;								\
  83:Middlewares/Third_Party/FreeRTOS/Source/portable/GCC/ARM_CM3/portmacro.h **** 																				\
  84:Middlewares/Third_Party/FreeRTOS/Source/portable/GCC/ARM_CM3/portmacro.h **** 	/* Barriers are normally not required but do ensure the code is completely	\
  85:Middlewares/Third_Party/FreeRTOS/Source/portable/GCC/ARM_CM3/portmacro.h **** 	within the specified behaviour for the architecture. */						\
  86:Middlewares/Third_Party/FreeRTOS/Source/portable/GCC/ARM_CM3/portmacro.h **** 	__asm volatile( "dsb" ::: "memory" );										\
  87:Middlewares/Third_Party/FreeRTOS/Source/portable/GCC/ARM_CM3/portmacro.h **** 	__asm volatile( "isb" );													\
  88:Middlewares/Third_Party/FreeRTOS/Source/portable/GCC/ARM_CM3/portmacro.h **** }
  89:Middlewares/Third_Party/FreeRTOS/Source/portable/GCC/ARM_CM3/portmacro.h **** 
  90:Middlewares/Third_Party/FreeRTOS/Source/portable/GCC/ARM_CM3/portmacro.h **** #define portNVIC_INT_CTRL_REG		( * ( ( volatile uint32_t * ) 0xe000ed04 ) )
  91:Middlewares/Third_Party/FreeRTOS/Source/portable/GCC/ARM_CM3/portmacro.h **** #define portNVIC_PENDSVSET_BIT		( 1UL << 28UL )
  92:Middlewares/Third_Party/FreeRTOS/Source/portable/GCC/ARM_CM3/portmacro.h **** #define portEND_SWITCHING_ISR( xSwitchRequired ) if( xSwitchRequired != pdFALSE ) portYIELD()
  93:Middlewares/Third_Party/FreeRTOS/Source/portable/GCC/ARM_CM3/portmacro.h **** #define portYIELD_FROM_ISR( x ) portEND_SWITCHING_ISR( x )
  94:Middlewares/Third_Party/FreeRTOS/Source/portable/GCC/ARM_CM3/portmacro.h **** /*-----------------------------------------------------------*/
  95:Middlewares/Third_Party/FreeRTOS/Source/portable/GCC/ARM_CM3/portmacro.h **** 
  96:Middlewares/Third_Party/FreeRTOS/Source/portable/GCC/ARM_CM3/portmacro.h **** /* Critical section management. */
ARM GAS  C:\Users\weiyi\AppData\Local\Temp\ccemZue5.s 			page 17


  97:Middlewares/Third_Party/FreeRTOS/Source/portable/GCC/ARM_CM3/portmacro.h **** extern void vPortEnterCritical( void );
  98:Middlewares/Third_Party/FreeRTOS/Source/portable/GCC/ARM_CM3/portmacro.h **** extern void vPortExitCritical( void );
  99:Middlewares/Third_Party/FreeRTOS/Source/portable/GCC/ARM_CM3/portmacro.h **** #define portSET_INTERRUPT_MASK_FROM_ISR()		ulPortRaiseBASEPRI()
 100:Middlewares/Third_Party/FreeRTOS/Source/portable/GCC/ARM_CM3/portmacro.h **** #define portCLEAR_INTERRUPT_MASK_FROM_ISR(x)	vPortSetBASEPRI(x)
 101:Middlewares/Third_Party/FreeRTOS/Source/portable/GCC/ARM_CM3/portmacro.h **** #define portDISABLE_INTERRUPTS()				vPortRaiseBASEPRI()
 102:Middlewares/Third_Party/FreeRTOS/Source/portable/GCC/ARM_CM3/portmacro.h **** #define portENABLE_INTERRUPTS()					vPortSetBASEPRI(0)
 103:Middlewares/Third_Party/FreeRTOS/Source/portable/GCC/ARM_CM3/portmacro.h **** #define portENTER_CRITICAL()					vPortEnterCritical()
 104:Middlewares/Third_Party/FreeRTOS/Source/portable/GCC/ARM_CM3/portmacro.h **** #define portEXIT_CRITICAL()						vPortExitCritical()
 105:Middlewares/Third_Party/FreeRTOS/Source/portable/GCC/ARM_CM3/portmacro.h **** 
 106:Middlewares/Third_Party/FreeRTOS/Source/portable/GCC/ARM_CM3/portmacro.h **** /*-----------------------------------------------------------*/
 107:Middlewares/Third_Party/FreeRTOS/Source/portable/GCC/ARM_CM3/portmacro.h **** 
 108:Middlewares/Third_Party/FreeRTOS/Source/portable/GCC/ARM_CM3/portmacro.h **** /* Task function macros as described on the FreeRTOS.org WEB site.  These are
 109:Middlewares/Third_Party/FreeRTOS/Source/portable/GCC/ARM_CM3/portmacro.h **** not necessary for to use this port.  They are defined so the common demo files
 110:Middlewares/Third_Party/FreeRTOS/Source/portable/GCC/ARM_CM3/portmacro.h **** (which build with all the ports) will build. */
 111:Middlewares/Third_Party/FreeRTOS/Source/portable/GCC/ARM_CM3/portmacro.h **** #define portTASK_FUNCTION_PROTO( vFunction, pvParameters ) void vFunction( void *pvParameters )
 112:Middlewares/Third_Party/FreeRTOS/Source/portable/GCC/ARM_CM3/portmacro.h **** #define portTASK_FUNCTION( vFunction, pvParameters ) void vFunction( void *pvParameters )
 113:Middlewares/Third_Party/FreeRTOS/Source/portable/GCC/ARM_CM3/portmacro.h **** /*-----------------------------------------------------------*/
 114:Middlewares/Third_Party/FreeRTOS/Source/portable/GCC/ARM_CM3/portmacro.h **** 
 115:Middlewares/Third_Party/FreeRTOS/Source/portable/GCC/ARM_CM3/portmacro.h **** /* Tickless idle/low power functionality. */
 116:Middlewares/Third_Party/FreeRTOS/Source/portable/GCC/ARM_CM3/portmacro.h **** #ifndef portSUPPRESS_TICKS_AND_SLEEP
 117:Middlewares/Third_Party/FreeRTOS/Source/portable/GCC/ARM_CM3/portmacro.h **** 	extern void vPortSuppressTicksAndSleep( TickType_t xExpectedIdleTime );
 118:Middlewares/Third_Party/FreeRTOS/Source/portable/GCC/ARM_CM3/portmacro.h **** 	#define portSUPPRESS_TICKS_AND_SLEEP( xExpectedIdleTime ) vPortSuppressTicksAndSleep( xExpectedIdl
 119:Middlewares/Third_Party/FreeRTOS/Source/portable/GCC/ARM_CM3/portmacro.h **** #endif
 120:Middlewares/Third_Party/FreeRTOS/Source/portable/GCC/ARM_CM3/portmacro.h **** /*-----------------------------------------------------------*/
 121:Middlewares/Third_Party/FreeRTOS/Source/portable/GCC/ARM_CM3/portmacro.h **** 
 122:Middlewares/Third_Party/FreeRTOS/Source/portable/GCC/ARM_CM3/portmacro.h **** /* Architecture specific optimisations. */
 123:Middlewares/Third_Party/FreeRTOS/Source/portable/GCC/ARM_CM3/portmacro.h **** #ifndef configUSE_PORT_OPTIMISED_TASK_SELECTION
 124:Middlewares/Third_Party/FreeRTOS/Source/portable/GCC/ARM_CM3/portmacro.h **** 	#define configUSE_PORT_OPTIMISED_TASK_SELECTION 1
 125:Middlewares/Third_Party/FreeRTOS/Source/portable/GCC/ARM_CM3/portmacro.h **** #endif
 126:Middlewares/Third_Party/FreeRTOS/Source/portable/GCC/ARM_CM3/portmacro.h **** 
 127:Middlewares/Third_Party/FreeRTOS/Source/portable/GCC/ARM_CM3/portmacro.h **** #if configUSE_PORT_OPTIMISED_TASK_SELECTION == 1
 128:Middlewares/Third_Party/FreeRTOS/Source/portable/GCC/ARM_CM3/portmacro.h **** 
 129:Middlewares/Third_Party/FreeRTOS/Source/portable/GCC/ARM_CM3/portmacro.h **** 	/* Generic helper function. */
 130:Middlewares/Third_Party/FreeRTOS/Source/portable/GCC/ARM_CM3/portmacro.h **** 	__attribute__( ( always_inline ) ) static inline uint8_t ucPortCountLeadingZeros( uint32_t ulBitma
 131:Middlewares/Third_Party/FreeRTOS/Source/portable/GCC/ARM_CM3/portmacro.h **** 	{
 132:Middlewares/Third_Party/FreeRTOS/Source/portable/GCC/ARM_CM3/portmacro.h **** 	uint8_t ucReturn;
 133:Middlewares/Third_Party/FreeRTOS/Source/portable/GCC/ARM_CM3/portmacro.h **** 
 134:Middlewares/Third_Party/FreeRTOS/Source/portable/GCC/ARM_CM3/portmacro.h **** 		__asm volatile ( "clz %0, %1" : "=r" ( ucReturn ) : "r" ( ulBitmap ) : "memory" );
 135:Middlewares/Third_Party/FreeRTOS/Source/portable/GCC/ARM_CM3/portmacro.h **** 		return ucReturn;
 136:Middlewares/Third_Party/FreeRTOS/Source/portable/GCC/ARM_CM3/portmacro.h **** 	}
 137:Middlewares/Third_Party/FreeRTOS/Source/portable/GCC/ARM_CM3/portmacro.h **** 
 138:Middlewares/Third_Party/FreeRTOS/Source/portable/GCC/ARM_CM3/portmacro.h **** 	/* Check the configuration. */
 139:Middlewares/Third_Party/FreeRTOS/Source/portable/GCC/ARM_CM3/portmacro.h **** 	#if( configMAX_PRIORITIES > 32 )
 140:Middlewares/Third_Party/FreeRTOS/Source/portable/GCC/ARM_CM3/portmacro.h **** 		#error configUSE_PORT_OPTIMISED_TASK_SELECTION can only be set to 1 when configMAX_PRIORITIES is 
 141:Middlewares/Third_Party/FreeRTOS/Source/portable/GCC/ARM_CM3/portmacro.h **** 	#endif
 142:Middlewares/Third_Party/FreeRTOS/Source/portable/GCC/ARM_CM3/portmacro.h **** 
 143:Middlewares/Third_Party/FreeRTOS/Source/portable/GCC/ARM_CM3/portmacro.h **** 	/* Store/clear the ready priorities in a bit map. */
 144:Middlewares/Third_Party/FreeRTOS/Source/portable/GCC/ARM_CM3/portmacro.h **** 	#define portRECORD_READY_PRIORITY( uxPriority, uxReadyPriorities ) ( uxReadyPriorities ) |= ( 1UL 
 145:Middlewares/Third_Party/FreeRTOS/Source/portable/GCC/ARM_CM3/portmacro.h **** 	#define portRESET_READY_PRIORITY( uxPriority, uxReadyPriorities ) ( uxReadyPriorities ) &= ~( 1UL 
 146:Middlewares/Third_Party/FreeRTOS/Source/portable/GCC/ARM_CM3/portmacro.h **** 
 147:Middlewares/Third_Party/FreeRTOS/Source/portable/GCC/ARM_CM3/portmacro.h **** 	/*-----------------------------------------------------------*/
 148:Middlewares/Third_Party/FreeRTOS/Source/portable/GCC/ARM_CM3/portmacro.h **** 
 149:Middlewares/Third_Party/FreeRTOS/Source/portable/GCC/ARM_CM3/portmacro.h **** 	#define portGET_HIGHEST_PRIORITY( uxTopPriority, uxReadyPriorities ) uxTopPriority = ( 31UL - ( ui
 150:Middlewares/Third_Party/FreeRTOS/Source/portable/GCC/ARM_CM3/portmacro.h **** 
 151:Middlewares/Third_Party/FreeRTOS/Source/portable/GCC/ARM_CM3/portmacro.h **** #endif /* configUSE_PORT_OPTIMISED_TASK_SELECTION */
 152:Middlewares/Third_Party/FreeRTOS/Source/portable/GCC/ARM_CM3/portmacro.h **** 
 153:Middlewares/Third_Party/FreeRTOS/Source/portable/GCC/ARM_CM3/portmacro.h **** /*-----------------------------------------------------------*/
ARM GAS  C:\Users\weiyi\AppData\Local\Temp\ccemZue5.s 			page 18


 154:Middlewares/Third_Party/FreeRTOS/Source/portable/GCC/ARM_CM3/portmacro.h **** 
 155:Middlewares/Third_Party/FreeRTOS/Source/portable/GCC/ARM_CM3/portmacro.h **** #ifdef configASSERT
 156:Middlewares/Third_Party/FreeRTOS/Source/portable/GCC/ARM_CM3/portmacro.h **** 	void vPortValidateInterruptPriority( void );
 157:Middlewares/Third_Party/FreeRTOS/Source/portable/GCC/ARM_CM3/portmacro.h **** 	#define portASSERT_IF_INTERRUPT_PRIORITY_INVALID() 	vPortValidateInterruptPriority()
 158:Middlewares/Third_Party/FreeRTOS/Source/portable/GCC/ARM_CM3/portmacro.h **** #endif
 159:Middlewares/Third_Party/FreeRTOS/Source/portable/GCC/ARM_CM3/portmacro.h **** 
 160:Middlewares/Third_Party/FreeRTOS/Source/portable/GCC/ARM_CM3/portmacro.h **** /* portNOP() is not required by this port. */
 161:Middlewares/Third_Party/FreeRTOS/Source/portable/GCC/ARM_CM3/portmacro.h **** #define portNOP()
 162:Middlewares/Third_Party/FreeRTOS/Source/portable/GCC/ARM_CM3/portmacro.h **** 
 163:Middlewares/Third_Party/FreeRTOS/Source/portable/GCC/ARM_CM3/portmacro.h **** #define portINLINE	__inline
 164:Middlewares/Third_Party/FreeRTOS/Source/portable/GCC/ARM_CM3/portmacro.h **** 
 165:Middlewares/Third_Party/FreeRTOS/Source/portable/GCC/ARM_CM3/portmacro.h **** #ifndef portFORCE_INLINE
 166:Middlewares/Third_Party/FreeRTOS/Source/portable/GCC/ARM_CM3/portmacro.h **** 	#define portFORCE_INLINE inline __attribute__(( always_inline))
 167:Middlewares/Third_Party/FreeRTOS/Source/portable/GCC/ARM_CM3/portmacro.h **** #endif
 168:Middlewares/Third_Party/FreeRTOS/Source/portable/GCC/ARM_CM3/portmacro.h **** 
 169:Middlewares/Third_Party/FreeRTOS/Source/portable/GCC/ARM_CM3/portmacro.h **** portFORCE_INLINE static BaseType_t xPortIsInsideInterrupt( void )
 170:Middlewares/Third_Party/FreeRTOS/Source/portable/GCC/ARM_CM3/portmacro.h **** {
 171:Middlewares/Third_Party/FreeRTOS/Source/portable/GCC/ARM_CM3/portmacro.h **** uint32_t ulCurrentInterrupt;
 172:Middlewares/Third_Party/FreeRTOS/Source/portable/GCC/ARM_CM3/portmacro.h **** BaseType_t xReturn;
 173:Middlewares/Third_Party/FreeRTOS/Source/portable/GCC/ARM_CM3/portmacro.h **** 
 174:Middlewares/Third_Party/FreeRTOS/Source/portable/GCC/ARM_CM3/portmacro.h **** 	/* Obtain the number of the currently executing interrupt. */
 175:Middlewares/Third_Party/FreeRTOS/Source/portable/GCC/ARM_CM3/portmacro.h **** 	__asm volatile( "mrs %0, ipsr" : "=r"( ulCurrentInterrupt ) :: "memory" );
 176:Middlewares/Third_Party/FreeRTOS/Source/portable/GCC/ARM_CM3/portmacro.h **** 
 177:Middlewares/Third_Party/FreeRTOS/Source/portable/GCC/ARM_CM3/portmacro.h **** 	if( ulCurrentInterrupt == 0 )
 178:Middlewares/Third_Party/FreeRTOS/Source/portable/GCC/ARM_CM3/portmacro.h **** 	{
 179:Middlewares/Third_Party/FreeRTOS/Source/portable/GCC/ARM_CM3/portmacro.h **** 		xReturn = pdFALSE;
 180:Middlewares/Third_Party/FreeRTOS/Source/portable/GCC/ARM_CM3/portmacro.h **** 	}
 181:Middlewares/Third_Party/FreeRTOS/Source/portable/GCC/ARM_CM3/portmacro.h **** 	else
 182:Middlewares/Third_Party/FreeRTOS/Source/portable/GCC/ARM_CM3/portmacro.h **** 	{
 183:Middlewares/Third_Party/FreeRTOS/Source/portable/GCC/ARM_CM3/portmacro.h **** 		xReturn = pdTRUE;
 184:Middlewares/Third_Party/FreeRTOS/Source/portable/GCC/ARM_CM3/portmacro.h **** 	}
 185:Middlewares/Third_Party/FreeRTOS/Source/portable/GCC/ARM_CM3/portmacro.h **** 
 186:Middlewares/Third_Party/FreeRTOS/Source/portable/GCC/ARM_CM3/portmacro.h **** 	return xReturn;
 187:Middlewares/Third_Party/FreeRTOS/Source/portable/GCC/ARM_CM3/portmacro.h **** }
 188:Middlewares/Third_Party/FreeRTOS/Source/portable/GCC/ARM_CM3/portmacro.h **** 
 189:Middlewares/Third_Party/FreeRTOS/Source/portable/GCC/ARM_CM3/portmacro.h **** /*-----------------------------------------------------------*/
 190:Middlewares/Third_Party/FreeRTOS/Source/portable/GCC/ARM_CM3/portmacro.h **** 
 191:Middlewares/Third_Party/FreeRTOS/Source/portable/GCC/ARM_CM3/portmacro.h **** portFORCE_INLINE static void vPortRaiseBASEPRI( void )
 117              		.loc 2 191 30 view .LVU27
 118              	.LBB38:
 192:Middlewares/Third_Party/FreeRTOS/Source/portable/GCC/ARM_CM3/portmacro.h **** {
 193:Middlewares/Third_Party/FreeRTOS/Source/portable/GCC/ARM_CM3/portmacro.h **** uint32_t ulNewBASEPRI;
 119              		.loc 2 193 1 view .LVU28
 194:Middlewares/Third_Party/FreeRTOS/Source/portable/GCC/ARM_CM3/portmacro.h **** 
 195:Middlewares/Third_Party/FreeRTOS/Source/portable/GCC/ARM_CM3/portmacro.h **** 	__asm volatile
 120              		.loc 2 195 2 view .LVU29
 121              		.syntax unified
 122              	@ 195 "Middlewares/Third_Party/FreeRTOS/Source/portable/GCC/ARM_CM3/portmacro.h" 1
 123 0012 4FF05003 			mov r3, #80												
 124 0016 83F31188 		msr basepri, r3											
 125 001a BFF36F8F 		isb														
 126 001e BFF34F8F 		dsb														
 127              	
 128              	@ 0 "" 2
 129              	.LVL9:
 130              		.thumb
 131              		.syntax unified
ARM GAS  C:\Users\weiyi\AppData\Local\Temp\ccemZue5.s 			page 19


 132              	.L10:
 133              		.loc 2 195 2 is_stmt 0 view .LVU30
 134              	.LBE38:
 135              	.LBE37:
 106:Middlewares/Third_Party/FreeRTOS/Source/event_groups.c **** 		}
 136              		.loc 1 106 4 is_stmt 1 discriminator 2 view .LVU31
 106:Middlewares/Third_Party/FreeRTOS/Source/event_groups.c **** 		}
 137              		.loc 1 106 4 discriminator 2 view .LVU32
 106:Middlewares/Third_Party/FreeRTOS/Source/event_groups.c **** 		}
 138              		.loc 1 106 4 discriminator 2 view .LVU33
 139 0022 FEE7     		b	.L10
 140              	.L13:
 141              	.LCFI2:
 142              		.cfi_def_cfa_offset 0
 143              		.cfi_restore 4
 144              		.cfi_restore 14
 106:Middlewares/Third_Party/FreeRTOS/Source/event_groups.c **** 		}
 145              		.loc 1 106 4 is_stmt 0 discriminator 2 view .LVU34
 146              	.LBE36:
  98:Middlewares/Third_Party/FreeRTOS/Source/event_groups.c **** 
 147              		.loc 1 98 3 is_stmt 1 view .LVU35
 148              	.LBB39:
 149              	.LBI39:
 191:Middlewares/Third_Party/FreeRTOS/Source/portable/GCC/ARM_CM3/portmacro.h **** {
 150              		.loc 2 191 30 view .LVU36
 151              	.LBB40:
 193:Middlewares/Third_Party/FreeRTOS/Source/portable/GCC/ARM_CM3/portmacro.h **** 
 152              		.loc 2 193 1 view .LVU37
 153              		.loc 2 195 2 view .LVU38
 154              		.syntax unified
 155              	@ 195 "Middlewares/Third_Party/FreeRTOS/Source/portable/GCC/ARM_CM3/portmacro.h" 1
 156 0024 4FF05003 			mov r3, #80												
 157 0028 83F31188 		msr basepri, r3											
 158 002c BFF36F8F 		isb														
 159 0030 BFF34F8F 		dsb														
 160              	
 161              	@ 0 "" 2
 162              	.LVL10:
 163              		.thumb
 164              		.syntax unified
 165              	.L8:
 166              		.loc 2 195 2 is_stmt 0 view .LVU39
 167              	.LBE40:
 168              	.LBE39:
  98:Middlewares/Third_Party/FreeRTOS/Source/event_groups.c **** 
 169              		.loc 1 98 3 is_stmt 1 discriminator 1 view .LVU40
  98:Middlewares/Third_Party/FreeRTOS/Source/event_groups.c **** 
 170              		.loc 1 98 3 discriminator 1 view .LVU41
  98:Middlewares/Third_Party/FreeRTOS/Source/event_groups.c **** 
 171              		.loc 1 98 3 discriminator 1 view .LVU42
 172 0034 FEE7     		b	.L8
 173              	.L9:
 174              	.LCFI3:
 175              		.cfi_def_cfa_offset 16
 176              		.cfi_offset 4, -8
 177              		.cfi_offset 14, -4
 178              	.LBB41:
ARM GAS  C:\Users\weiyi\AppData\Local\Temp\ccemZue5.s 			page 20


 106:Middlewares/Third_Party/FreeRTOS/Source/event_groups.c **** 		}
 179              		.loc 1 106 51 view .LVU43
 180              	.LBE41:
 111:Middlewares/Third_Party/FreeRTOS/Source/event_groups.c **** 
 181              		.loc 1 111 3 view .LVU44
 182              	.LVL11:
 113:Middlewares/Third_Party/FreeRTOS/Source/event_groups.c **** 		{
 183              		.loc 1 113 3 view .LVU45
 115:Middlewares/Third_Party/FreeRTOS/Source/event_groups.c **** 			vListInitialise( &( pxEventBits->xTasksWaitingForBits ) );
 184              		.loc 1 115 4 view .LVU46
 115:Middlewares/Third_Party/FreeRTOS/Source/event_groups.c **** 			vListInitialise( &( pxEventBits->xTasksWaitingForBits ) );
 185              		.loc 1 115 29 is_stmt 0 view .LVU47
 186 0036 0023     		movs	r3, #0
 187 0038 40F8043B 		str	r3, [r0], #4
 188              	.LVL12:
 116:Middlewares/Third_Party/FreeRTOS/Source/event_groups.c **** 
 189              		.loc 1 116 4 is_stmt 1 view .LVU48
 190 003c FFF7FEFF 		bl	vListInitialise
 191              	.LVL13:
 123:Middlewares/Third_Party/FreeRTOS/Source/event_groups.c **** 			}
 192              		.loc 1 123 5 view .LVU49
 123:Middlewares/Third_Party/FreeRTOS/Source/event_groups.c **** 			}
 193              		.loc 1 123 40 is_stmt 0 view .LVU50
 194 0040 0123     		movs	r3, #1
 195 0042 2377     		strb	r3, [r4, #28]
 127:Middlewares/Third_Party/FreeRTOS/Source/event_groups.c **** 		}
 196              		.loc 1 127 42 is_stmt 1 view .LVU51
 131:Middlewares/Third_Party/FreeRTOS/Source/event_groups.c **** 		}
 197              		.loc 1 131 36 view .LVU52
 134:Middlewares/Third_Party/FreeRTOS/Source/event_groups.c **** 	}
 198              		.loc 1 134 3 view .LVU53
 135:Middlewares/Third_Party/FreeRTOS/Source/event_groups.c **** 
 199              		.loc 1 135 2 is_stmt 0 view .LVU54
 200 0044 2046     		mov	r0, r4
 201 0046 02B0     		add	sp, sp, #8
 202              	.LCFI4:
 203              		.cfi_def_cfa_offset 8
 204              		@ sp needed
 205 0048 10BD     		pop	{r4, pc}
 135:Middlewares/Third_Party/FreeRTOS/Source/event_groups.c **** 
 206              		.loc 1 135 2 view .LVU55
 207              		.cfi_endproc
 208              	.LFE4:
 210              		.section	.text.xEventGroupCreate,"ax",%progbits
 211              		.align	1
 212              		.global	xEventGroupCreate
 213              		.syntax unified
 214              		.thumb
 215              		.thumb_func
 216              		.fpu softvfp
 218              	xEventGroupCreate:
 219              	.LFB5:
 143:Middlewares/Third_Party/FreeRTOS/Source/event_groups.c **** 	EventGroup_t *pxEventBits;
 220              		.loc 1 143 2 is_stmt 1 view -0
 221              		.cfi_startproc
 222              		@ args = 0, pretend = 0, frame = 0
 223              		@ frame_needed = 0, uses_anonymous_args = 0
ARM GAS  C:\Users\weiyi\AppData\Local\Temp\ccemZue5.s 			page 21


 224 0000 38B5     		push	{r3, r4, r5, lr}
 225              	.LCFI5:
 226              		.cfi_def_cfa_offset 16
 227              		.cfi_offset 3, -16
 228              		.cfi_offset 4, -12
 229              		.cfi_offset 5, -8
 230              		.cfi_offset 14, -4
 144:Middlewares/Third_Party/FreeRTOS/Source/event_groups.c **** 
 231              		.loc 1 144 2 view .LVU57
 147:Middlewares/Third_Party/FreeRTOS/Source/event_groups.c **** 
 232              		.loc 1 147 3 view .LVU58
 147:Middlewares/Third_Party/FreeRTOS/Source/event_groups.c **** 
 233              		.loc 1 147 36 is_stmt 0 view .LVU59
 234 0002 2020     		movs	r0, #32
 235 0004 FFF7FEFF 		bl	pvPortMalloc
 236              	.LVL14:
 149:Middlewares/Third_Party/FreeRTOS/Source/event_groups.c **** 		{
 237              		.loc 1 149 3 is_stmt 1 view .LVU60
 149:Middlewares/Third_Party/FreeRTOS/Source/event_groups.c **** 		{
 238              		.loc 1 149 5 is_stmt 0 view .LVU61
 239 0008 0446     		mov	r4, r0
 240 000a 28B1     		cbz	r0, .L14
 151:Middlewares/Third_Party/FreeRTOS/Source/event_groups.c **** 			vListInitialise( &( pxEventBits->xTasksWaitingForBits ) );
 241              		.loc 1 151 4 is_stmt 1 view .LVU62
 151:Middlewares/Third_Party/FreeRTOS/Source/event_groups.c **** 			vListInitialise( &( pxEventBits->xTasksWaitingForBits ) );
 242              		.loc 1 151 29 is_stmt 0 view .LVU63
 243 000c 0025     		movs	r5, #0
 244 000e 40F8045B 		str	r5, [r0], #4
 245              	.LVL15:
 152:Middlewares/Third_Party/FreeRTOS/Source/event_groups.c **** 
 246              		.loc 1 152 4 is_stmt 1 view .LVU64
 247 0012 FFF7FEFF 		bl	vListInitialise
 248              	.LVL16:
 159:Middlewares/Third_Party/FreeRTOS/Source/event_groups.c **** 			}
 249              		.loc 1 159 5 view .LVU65
 159:Middlewares/Third_Party/FreeRTOS/Source/event_groups.c **** 			}
 250              		.loc 1 159 40 is_stmt 0 view .LVU66
 251 0016 2577     		strb	r5, [r4, #28]
 163:Middlewares/Third_Party/FreeRTOS/Source/event_groups.c **** 		}
 252              		.loc 1 163 42 is_stmt 1 view .LVU67
 167:Middlewares/Third_Party/FreeRTOS/Source/event_groups.c **** 		}
 253              		.loc 1 167 36 view .LVU68
 170:Middlewares/Third_Party/FreeRTOS/Source/event_groups.c **** 	}
 254              		.loc 1 170 3 view .LVU69
 255              	.L14:
 171:Middlewares/Third_Party/FreeRTOS/Source/event_groups.c **** 
 256              		.loc 1 171 2 is_stmt 0 view .LVU70
 257 0018 2046     		mov	r0, r4
 258 001a 38BD     		pop	{r3, r4, r5, pc}
 171:Middlewares/Third_Party/FreeRTOS/Source/event_groups.c **** 
 259              		.loc 1 171 2 view .LVU71
 260              		.cfi_endproc
 261              	.LFE5:
 263              		.section	.text.xEventGroupWaitBits,"ax",%progbits
 264              		.align	1
 265              		.global	xEventGroupWaitBits
 266              		.syntax unified
ARM GAS  C:\Users\weiyi\AppData\Local\Temp\ccemZue5.s 			page 22


 267              		.thumb
 268              		.thumb_func
 269              		.fpu softvfp
 271              	xEventGroupWaitBits:
 272              	.LVL17:
 273              	.LFB7:
 297:Middlewares/Third_Party/FreeRTOS/Source/event_groups.c **** EventGroup_t *pxEventBits = ( EventGroup_t * ) xEventGroup;
 274              		.loc 1 297 1 is_stmt 1 view -0
 275              		.cfi_startproc
 276              		@ args = 4, pretend = 0, frame = 0
 277              		@ frame_needed = 0, uses_anonymous_args = 0
 297:Middlewares/Third_Party/FreeRTOS/Source/event_groups.c **** EventGroup_t *pxEventBits = ( EventGroup_t * ) xEventGroup;
 278              		.loc 1 297 1 is_stmt 0 view .LVU73
 279 0000 2DE9F843 		push	{r3, r4, r5, r6, r7, r8, r9, lr}
 280              	.LCFI6:
 281              		.cfi_def_cfa_offset 32
 282              		.cfi_offset 3, -32
 283              		.cfi_offset 4, -28
 284              		.cfi_offset 5, -24
 285              		.cfi_offset 6, -20
 286              		.cfi_offset 7, -16
 287              		.cfi_offset 8, -12
 288              		.cfi_offset 9, -8
 289              		.cfi_offset 14, -4
 298:Middlewares/Third_Party/FreeRTOS/Source/event_groups.c **** EventBits_t uxReturn, uxControlBits = 0;
 290              		.loc 1 298 1 is_stmt 1 view .LVU74
 291              	.LVL18:
 299:Middlewares/Third_Party/FreeRTOS/Source/event_groups.c **** BaseType_t xWaitConditionMet, xAlreadyYielded;
 292              		.loc 1 299 1 view .LVU75
 300:Middlewares/Third_Party/FreeRTOS/Source/event_groups.c **** BaseType_t xTimeoutOccurred = pdFALSE;
 293              		.loc 1 300 1 view .LVU76
 301:Middlewares/Third_Party/FreeRTOS/Source/event_groups.c **** 
 294              		.loc 1 301 1 view .LVU77
 305:Middlewares/Third_Party/FreeRTOS/Source/event_groups.c **** 	configASSERT( ( uxBitsToWaitFor & eventEVENT_BITS_CONTROL_BYTES ) == 0 );
 295              		.loc 1 305 2 view .LVU78
 296 0004 78B1     		cbz	r0, .L37
 297 0006 0C46     		mov	r4, r1
 298 0008 1646     		mov	r6, r2
 299 000a 1D46     		mov	r5, r3
 300 000c 0746     		mov	r7, r0
 305:Middlewares/Third_Party/FreeRTOS/Source/event_groups.c **** 	configASSERT( ( uxBitsToWaitFor & eventEVENT_BITS_CONTROL_BYTES ) == 0 );
 301              		.loc 1 305 29 discriminator 2 view .LVU79
 306:Middlewares/Third_Party/FreeRTOS/Source/event_groups.c **** 	configASSERT( uxBitsToWaitFor != 0 );
 302              		.loc 1 306 2 discriminator 2 view .LVU80
 303 000e 11F07F48 		ands	r8, r1, #-16777216
 304 0012 11D0     		beq	.L20
 306:Middlewares/Third_Party/FreeRTOS/Source/event_groups.c **** 	configASSERT( uxBitsToWaitFor != 0 );
 305              		.loc 1 306 2 view .LVU81
 306              	.LBB42:
 307              	.LBI42:
 191:Middlewares/Third_Party/FreeRTOS/Source/portable/GCC/ARM_CM3/portmacro.h **** {
 308              		.loc 2 191 30 view .LVU82
 309              	.LBB43:
 193:Middlewares/Third_Party/FreeRTOS/Source/portable/GCC/ARM_CM3/portmacro.h **** 
 310              		.loc 2 193 1 view .LVU83
 311              		.loc 2 195 2 view .LVU84
 312              		.syntax unified
ARM GAS  C:\Users\weiyi\AppData\Local\Temp\ccemZue5.s 			page 23


 313              	@ 195 "Middlewares/Third_Party/FreeRTOS/Source/portable/GCC/ARM_CM3/portmacro.h" 1
 314 0014 4FF05003 			mov r3, #80												
 315 0018 83F31188 		msr basepri, r3											
 316 001c BFF36F8F 		isb														
 317 0020 BFF34F8F 		dsb														
 318              	
 319              	@ 0 "" 2
 320              	.LVL19:
 321              		.thumb
 322              		.syntax unified
 323              	.L21:
 324              		.loc 2 195 2 is_stmt 0 view .LVU85
 325              	.LBE43:
 326              	.LBE42:
 306:Middlewares/Third_Party/FreeRTOS/Source/event_groups.c **** 	configASSERT( uxBitsToWaitFor != 0 );
 327              		.loc 1 306 2 is_stmt 1 discriminator 2 view .LVU86
 306:Middlewares/Third_Party/FreeRTOS/Source/event_groups.c **** 	configASSERT( uxBitsToWaitFor != 0 );
 328              		.loc 1 306 2 discriminator 2 view .LVU87
 306:Middlewares/Third_Party/FreeRTOS/Source/event_groups.c **** 	configASSERT( uxBitsToWaitFor != 0 );
 329              		.loc 1 306 2 discriminator 2 view .LVU88
 330 0024 FEE7     		b	.L21
 331              	.LVL20:
 332              	.L37:
 305:Middlewares/Third_Party/FreeRTOS/Source/event_groups.c **** 	configASSERT( ( uxBitsToWaitFor & eventEVENT_BITS_CONTROL_BYTES ) == 0 );
 333              		.loc 1 305 2 view .LVU89
 334              	.LBB44:
 335              	.LBI44:
 191:Middlewares/Third_Party/FreeRTOS/Source/portable/GCC/ARM_CM3/portmacro.h **** {
 336              		.loc 2 191 30 view .LVU90
 337              	.LBB45:
 193:Middlewares/Third_Party/FreeRTOS/Source/portable/GCC/ARM_CM3/portmacro.h **** 
 338              		.loc 2 193 1 view .LVU91
 339              		.loc 2 195 2 view .LVU92
 340              		.syntax unified
 341              	@ 195 "Middlewares/Third_Party/FreeRTOS/Source/portable/GCC/ARM_CM3/portmacro.h" 1
 342 0026 4FF05003 			mov r3, #80												
 343 002a 83F31188 		msr basepri, r3											
 344 002e BFF36F8F 		isb														
 345 0032 BFF34F8F 		dsb														
 346              	
 347              	@ 0 "" 2
 348              	.LVL21:
 349              		.thumb
 350              		.syntax unified
 351              	.L19:
 352              		.loc 2 195 2 is_stmt 0 view .LVU93
 353              	.LBE45:
 354              	.LBE44:
 305:Middlewares/Third_Party/FreeRTOS/Source/event_groups.c **** 	configASSERT( ( uxBitsToWaitFor & eventEVENT_BITS_CONTROL_BYTES ) == 0 );
 355              		.loc 1 305 2 is_stmt 1 discriminator 1 view .LVU94
 305:Middlewares/Third_Party/FreeRTOS/Source/event_groups.c **** 	configASSERT( ( uxBitsToWaitFor & eventEVENT_BITS_CONTROL_BYTES ) == 0 );
 356              		.loc 1 305 2 discriminator 1 view .LVU95
 305:Middlewares/Third_Party/FreeRTOS/Source/event_groups.c **** 	configASSERT( ( uxBitsToWaitFor & eventEVENT_BITS_CONTROL_BYTES ) == 0 );
 357              		.loc 1 305 2 discriminator 1 view .LVU96
 358 0036 FEE7     		b	.L19
 359              	.LVL22:
 360              	.L20:
ARM GAS  C:\Users\weiyi\AppData\Local\Temp\ccemZue5.s 			page 24


 306:Middlewares/Third_Party/FreeRTOS/Source/event_groups.c **** 	configASSERT( uxBitsToWaitFor != 0 );
 361              		.loc 1 306 74 discriminator 2 view .LVU97
 307:Middlewares/Third_Party/FreeRTOS/Source/event_groups.c **** 	#if ( ( INCLUDE_xTaskGetSchedulerState == 1 ) || ( configUSE_TIMERS == 1 ) )
 362              		.loc 1 307 2 discriminator 2 view .LVU98
 363 0038 41B9     		cbnz	r1, .L22
 307:Middlewares/Third_Party/FreeRTOS/Source/event_groups.c **** 	#if ( ( INCLUDE_xTaskGetSchedulerState == 1 ) || ( configUSE_TIMERS == 1 ) )
 364              		.loc 1 307 2 view .LVU99
 365              	.LBB46:
 366              	.LBI46:
 191:Middlewares/Third_Party/FreeRTOS/Source/portable/GCC/ARM_CM3/portmacro.h **** {
 367              		.loc 2 191 30 view .LVU100
 368              	.LBB47:
 193:Middlewares/Third_Party/FreeRTOS/Source/portable/GCC/ARM_CM3/portmacro.h **** 
 369              		.loc 2 193 1 view .LVU101
 370              		.loc 2 195 2 view .LVU102
 371              		.syntax unified
 372              	@ 195 "Middlewares/Third_Party/FreeRTOS/Source/portable/GCC/ARM_CM3/portmacro.h" 1
 373 003a 4FF05003 			mov r3, #80												
 374 003e 83F31188 		msr basepri, r3											
 375 0042 BFF36F8F 		isb														
 376 0046 BFF34F8F 		dsb														
 377              	
 378              	@ 0 "" 2
 379              	.LVL23:
 380              		.thumb
 381              		.syntax unified
 382              	.L23:
 383              		.loc 2 195 2 is_stmt 0 view .LVU103
 384              	.LBE47:
 385              	.LBE46:
 307:Middlewares/Third_Party/FreeRTOS/Source/event_groups.c **** 	#if ( ( INCLUDE_xTaskGetSchedulerState == 1 ) || ( configUSE_TIMERS == 1 ) )
 386              		.loc 1 307 2 is_stmt 1 discriminator 3 view .LVU104
 307:Middlewares/Third_Party/FreeRTOS/Source/event_groups.c **** 	#if ( ( INCLUDE_xTaskGetSchedulerState == 1 ) || ( configUSE_TIMERS == 1 ) )
 387              		.loc 1 307 2 discriminator 3 view .LVU105
 307:Middlewares/Third_Party/FreeRTOS/Source/event_groups.c **** 	#if ( ( INCLUDE_xTaskGetSchedulerState == 1 ) || ( configUSE_TIMERS == 1 ) )
 388              		.loc 1 307 2 discriminator 3 view .LVU106
 389 004a FEE7     		b	.L23
 390              	.LVL24:
 391              	.L22:
 307:Middlewares/Third_Party/FreeRTOS/Source/event_groups.c **** 	#if ( ( INCLUDE_xTaskGetSchedulerState == 1 ) || ( configUSE_TIMERS == 1 ) )
 392              		.loc 1 307 38 discriminator 2 view .LVU107
 310:Middlewares/Third_Party/FreeRTOS/Source/event_groups.c **** 	}
 393              		.loc 1 310 3 discriminator 2 view .LVU108
 394 004c FFF7FEFF 		bl	xTaskGetSchedulerState
 395              	.LVL25:
 310:Middlewares/Third_Party/FreeRTOS/Source/event_groups.c **** 	}
 396              		.loc 1 310 3 is_stmt 0 discriminator 2 view .LVU109
 397 0050 50B9     		cbnz	r0, .L24
 398 0052 089B     		ldr	r3, [sp, #32]
 399 0054 43B1     		cbz	r3, .L24
 310:Middlewares/Third_Party/FreeRTOS/Source/event_groups.c **** 	}
 400              		.loc 1 310 3 is_stmt 1 view .LVU110
 401              	.LBB48:
 402              	.LBI48:
 191:Middlewares/Third_Party/FreeRTOS/Source/portable/GCC/ARM_CM3/portmacro.h **** {
 403              		.loc 2 191 30 view .LVU111
 404              	.LBB49:
ARM GAS  C:\Users\weiyi\AppData\Local\Temp\ccemZue5.s 			page 25


 193:Middlewares/Third_Party/FreeRTOS/Source/portable/GCC/ARM_CM3/portmacro.h **** 
 405              		.loc 2 193 1 view .LVU112
 406              		.loc 2 195 2 view .LVU113
 407              		.syntax unified
 408              	@ 195 "Middlewares/Third_Party/FreeRTOS/Source/portable/GCC/ARM_CM3/portmacro.h" 1
 409 0056 4FF05003 			mov r3, #80												
 410 005a 83F31188 		msr basepri, r3											
 411 005e BFF36F8F 		isb														
 412 0062 BFF34F8F 		dsb														
 413              	
 414              	@ 0 "" 2
 415              	.LVL26:
 416              		.thumb
 417              		.syntax unified
 418              	.L25:
 419              		.loc 2 195 2 is_stmt 0 view .LVU114
 420              	.LBE49:
 421              	.LBE48:
 310:Middlewares/Third_Party/FreeRTOS/Source/event_groups.c **** 	}
 422              		.loc 1 310 3 is_stmt 1 discriminator 4 view .LVU115
 310:Middlewares/Third_Party/FreeRTOS/Source/event_groups.c **** 	}
 423              		.loc 1 310 3 discriminator 4 view .LVU116
 310:Middlewares/Third_Party/FreeRTOS/Source/event_groups.c **** 	}
 424              		.loc 1 310 3 discriminator 4 view .LVU117
 425 0066 FEE7     		b	.L25
 426              	.L24:
 310:Middlewares/Third_Party/FreeRTOS/Source/event_groups.c **** 	}
 427              		.loc 1 310 104 discriminator 8 view .LVU118
 314:Middlewares/Third_Party/FreeRTOS/Source/event_groups.c **** 	{
 428              		.loc 1 314 2 discriminator 8 view .LVU119
 429 0068 FFF7FEFF 		bl	vTaskSuspendAll
 430              	.LVL27:
 431              	.LBB50:
 316:Middlewares/Third_Party/FreeRTOS/Source/event_groups.c **** 
 432              		.loc 1 316 3 discriminator 8 view .LVU120
 316:Middlewares/Third_Party/FreeRTOS/Source/event_groups.c **** 
 433              		.loc 1 316 21 is_stmt 0 discriminator 8 view .LVU121
 434 006c D7F80090 		ldr	r9, [r7]
 435              	.LVL28:
 319:Middlewares/Third_Party/FreeRTOS/Source/event_groups.c **** 
 436              		.loc 1 319 3 is_stmt 1 discriminator 8 view .LVU122
 319:Middlewares/Third_Party/FreeRTOS/Source/event_groups.c **** 
 437              		.loc 1 319 23 is_stmt 0 discriminator 8 view .LVU123
 438 0070 2A46     		mov	r2, r5
 439 0072 2146     		mov	r1, r4
 440 0074 4846     		mov	r0, r9
 441 0076 FFF7FEFF 		bl	prvTestWaitCondition
 442              	.LVL29:
 321:Middlewares/Third_Party/FreeRTOS/Source/event_groups.c **** 		{
 443              		.loc 1 321 3 is_stmt 1 discriminator 8 view .LVU124
 321:Middlewares/Third_Party/FreeRTOS/Source/event_groups.c **** 		{
 444              		.loc 1 321 5 is_stmt 0 discriminator 8 view .LVU125
 445 007a F0B1     		cbz	r0, .L26
 325:Middlewares/Third_Party/FreeRTOS/Source/event_groups.c **** 			xTicksToWait = ( TickType_t ) 0;
 446              		.loc 1 325 4 is_stmt 1 view .LVU126
 447              	.LVL30:
 326:Middlewares/Third_Party/FreeRTOS/Source/event_groups.c **** 
ARM GAS  C:\Users\weiyi\AppData\Local\Temp\ccemZue5.s 			page 26


 448              		.loc 1 326 4 view .LVU127
 329:Middlewares/Third_Party/FreeRTOS/Source/event_groups.c **** 			{
 449              		.loc 1 329 4 view .LVU128
 329:Middlewares/Third_Party/FreeRTOS/Source/event_groups.c **** 			{
 450              		.loc 1 329 6 is_stmt 0 view .LVU129
 451 007c 16B1     		cbz	r6, .L27
 331:Middlewares/Third_Party/FreeRTOS/Source/event_groups.c **** 			}
 452              		.loc 1 331 5 is_stmt 1 view .LVU130
 331:Middlewares/Third_Party/FreeRTOS/Source/event_groups.c **** 			}
 453              		.loc 1 331 30 is_stmt 0 view .LVU131
 454 007e 29EA0403 		bic	r3, r9, r4
 455 0082 3B60     		str	r3, [r7]
 456              	.LVL31:
 457              	.L27:
 379:Middlewares/Third_Party/FreeRTOS/Source/event_groups.c **** 		}
 458              		.loc 1 379 68 is_stmt 1 view .LVU132
 459              	.LBE50:
 382:Middlewares/Third_Party/FreeRTOS/Source/event_groups.c **** 
 460              		.loc 1 382 2 view .LVU133
 382:Middlewares/Third_Party/FreeRTOS/Source/event_groups.c **** 
 461              		.loc 1 382 20 is_stmt 0 view .LVU134
 462 0084 FFF7FEFF 		bl	xTaskResumeAll
 463              	.LVL32:
 384:Middlewares/Third_Party/FreeRTOS/Source/event_groups.c **** 	{
 464              		.loc 1 384 2 is_stmt 1 view .LVU135
 384:Middlewares/Third_Party/FreeRTOS/Source/event_groups.c **** 	{
 465              		.loc 1 384 4 is_stmt 0 view .LVU136
 466 0088 B8F1000F 		cmp	r8, #0
 467 008c 12D0     		beq	.L17
 386:Middlewares/Third_Party/FreeRTOS/Source/event_groups.c **** 		{
 468              		.loc 1 386 3 is_stmt 1 view .LVU137
 386:Middlewares/Third_Party/FreeRTOS/Source/event_groups.c **** 		{
 469              		.loc 1 386 5 is_stmt 0 view .LVU138
 470 008e 48B9     		cbnz	r0, .L31
 388:Middlewares/Third_Party/FreeRTOS/Source/event_groups.c **** 		}
 471              		.loc 1 388 4 is_stmt 1 view .LVU139
 472 0090 4FF0E023 		mov	r3, #-536813568
 473 0094 4FF08052 		mov	r2, #268435456
 474 0098 C3F8042D 		str	r2, [r3, #3332]
 388:Middlewares/Third_Party/FreeRTOS/Source/event_groups.c **** 		}
 475              		.loc 1 388 4 view .LVU140
 476              		.syntax unified
 477              	@ 388 "Middlewares/Third_Party/FreeRTOS/Source/event_groups.c" 1
 478 009c BFF34F8F 		dsb
 479              	@ 0 "" 2
 388:Middlewares/Third_Party/FreeRTOS/Source/event_groups.c **** 		}
 480              		.loc 1 388 4 view .LVU141
 481              	@ 388 "Middlewares/Third_Party/FreeRTOS/Source/event_groups.c" 1
 482 00a0 BFF36F8F 		isb
 483              	@ 0 "" 2
 388:Middlewares/Third_Party/FreeRTOS/Source/event_groups.c **** 		}
 484              		.loc 1 388 26 view .LVU142
 485              		.thumb
 486              		.syntax unified
 487              	.L31:
 392:Middlewares/Third_Party/FreeRTOS/Source/event_groups.c **** 		}
 488              		.loc 1 392 28 view .LVU143
ARM GAS  C:\Users\weiyi\AppData\Local\Temp\ccemZue5.s 			page 27


 399:Middlewares/Third_Party/FreeRTOS/Source/event_groups.c **** 
 489              		.loc 1 399 3 view .LVU144
 399:Middlewares/Third_Party/FreeRTOS/Source/event_groups.c **** 
 490              		.loc 1 399 14 is_stmt 0 view .LVU145
 491 00a4 FFF7FEFF 		bl	uxTaskResetEventItemValue
 492              	.LVL33:
 399:Middlewares/Third_Party/FreeRTOS/Source/event_groups.c **** 
 493              		.loc 1 399 14 view .LVU146
 494 00a8 8146     		mov	r9, r0
 495              	.LVL34:
 401:Middlewares/Third_Party/FreeRTOS/Source/event_groups.c **** 		{
 496              		.loc 1 401 3 is_stmt 1 view .LVU147
 401:Middlewares/Third_Party/FreeRTOS/Source/event_groups.c **** 		{
 497              		.loc 1 401 5 is_stmt 0 view .LVU148
 498 00aa 10F0007F 		tst	r0, #33554432
 499 00ae 1AD0     		beq	.L38
 500              	.LVL35:
 501              	.L32:
 432:Middlewares/Third_Party/FreeRTOS/Source/event_groups.c **** 
 502              		.loc 1 432 3 is_stmt 1 view .LVU149
 435:Middlewares/Third_Party/FreeRTOS/Source/event_groups.c **** 	}
 503              		.loc 1 435 3 view .LVU150
 435:Middlewares/Third_Party/FreeRTOS/Source/event_groups.c **** 	}
 504              		.loc 1 435 12 is_stmt 0 view .LVU151
 505 00b0 29F07F49 		bic	r9, r9, #-16777216
 506              	.LVL36:
 437:Middlewares/Third_Party/FreeRTOS/Source/event_groups.c **** 
 507              		.loc 1 437 2 is_stmt 1 view .LVU152
 440:Middlewares/Third_Party/FreeRTOS/Source/event_groups.c **** 
 508              		.loc 1 440 2 view .LVU153
 442:Middlewares/Third_Party/FreeRTOS/Source/event_groups.c **** }
 509              		.loc 1 442 2 view .LVU154
 510              	.L17:
 443:Middlewares/Third_Party/FreeRTOS/Source/event_groups.c **** /*-----------------------------------------------------------*/
 511              		.loc 1 443 1 is_stmt 0 view .LVU155
 512 00b4 4846     		mov	r0, r9
 513 00b6 BDE8F883 		pop	{r3, r4, r5, r6, r7, r8, r9, pc}
 514              	.LVL37:
 515              	.L26:
 516              	.LBB51:
 338:Middlewares/Third_Party/FreeRTOS/Source/event_groups.c **** 		{
 517              		.loc 1 338 8 is_stmt 1 view .LVU156
 338:Middlewares/Third_Party/FreeRTOS/Source/event_groups.c **** 		{
 518              		.loc 1 338 10 is_stmt 0 view .LVU157
 519 00ba 089B     		ldr	r3, [sp, #32]
 520 00bc 83B1     		cbz	r3, .L34
 351:Middlewares/Third_Party/FreeRTOS/Source/event_groups.c **** 			{
 521              		.loc 1 351 4 is_stmt 1 view .LVU158
 351:Middlewares/Third_Party/FreeRTOS/Source/event_groups.c **** 			{
 522              		.loc 1 351 6 is_stmt 0 view .LVU159
 523 00be 66B9     		cbnz	r6, .L35
 524              	.LBE51:
 299:Middlewares/Third_Party/FreeRTOS/Source/event_groups.c **** BaseType_t xWaitConditionMet, xAlreadyYielded;
 525              		.loc 1 299 23 view .LVU160
 526 00c0 4146     		mov	r1, r8
 527              	.L28:
 528              	.LVL38:
ARM GAS  C:\Users\weiyi\AppData\Local\Temp\ccemZue5.s 			page 28


 529              	.LBB52:
 357:Middlewares/Third_Party/FreeRTOS/Source/event_groups.c **** 			}
 530              		.loc 1 357 29 is_stmt 1 view .LVU161
 360:Middlewares/Third_Party/FreeRTOS/Source/event_groups.c **** 			{
 531              		.loc 1 360 4 view .LVU162
 360:Middlewares/Third_Party/FreeRTOS/Source/event_groups.c **** 			{
 532              		.loc 1 360 6 is_stmt 0 view .LVU163
 533 00c2 0DB1     		cbz	r5, .L29
 362:Middlewares/Third_Party/FreeRTOS/Source/event_groups.c **** 			}
 534              		.loc 1 362 5 is_stmt 1 view .LVU164
 362:Middlewares/Third_Party/FreeRTOS/Source/event_groups.c **** 			}
 535              		.loc 1 362 19 is_stmt 0 view .LVU165
 536 00c4 41F08061 		orr	r1, r1, #67108864
 537              	.LVL39:
 538              	.L29:
 366:Middlewares/Third_Party/FreeRTOS/Source/event_groups.c **** 			}
 539              		.loc 1 366 29 is_stmt 1 view .LVU166
 372:Middlewares/Third_Party/FreeRTOS/Source/event_groups.c **** 
 540              		.loc 1 372 4 view .LVU167
 541 00c8 089A     		ldr	r2, [sp, #32]
 542 00ca 2143     		orrs	r1, r1, r4
 543              	.LVL40:
 372:Middlewares/Third_Party/FreeRTOS/Source/event_groups.c **** 
 544              		.loc 1 372 4 is_stmt 0 view .LVU168
 545 00cc 381D     		adds	r0, r7, #4
 546              	.LVL41:
 372:Middlewares/Third_Party/FreeRTOS/Source/event_groups.c **** 
 547              		.loc 1 372 4 view .LVU169
 548 00ce FFF7FEFF 		bl	vTaskPlaceOnUnorderedEventList
 549              	.LVL42:
 377:Middlewares/Third_Party/FreeRTOS/Source/event_groups.c **** 
 550              		.loc 1 377 4 is_stmt 1 view .LVU170
 377:Middlewares/Third_Party/FreeRTOS/Source/event_groups.c **** 
 551              		.loc 1 377 13 is_stmt 0 view .LVU171
 552 00d2 C146     		mov	r9, r8
 553              	.LVL43:
 372:Middlewares/Third_Party/FreeRTOS/Source/event_groups.c **** 
 554              		.loc 1 372 4 view .LVU172
 555 00d4 DDF82080 		ldr	r8, [sp, #32]
 556 00d8 D4E7     		b	.L27
 557              	.LVL44:
 558              	.L35:
 353:Middlewares/Third_Party/FreeRTOS/Source/event_groups.c **** 			}
 559              		.loc 1 353 19 view .LVU173
 560 00da 4FF08071 		mov	r1, #16777216
 561 00de F0E7     		b	.L28
 562              	.L34:
 563 00e0 DDF82080 		ldr	r8, [sp, #32]
 564 00e4 CEE7     		b	.L27
 565              	.LVL45:
 566              	.L38:
 353:Middlewares/Third_Party/FreeRTOS/Source/event_groups.c **** 			}
 567              		.loc 1 353 19 view .LVU174
 568              	.LBE52:
 403:Middlewares/Third_Party/FreeRTOS/Source/event_groups.c **** 			{
 569              		.loc 1 403 4 is_stmt 1 view .LVU175
 570 00e6 FFF7FEFF 		bl	vPortEnterCritical
ARM GAS  C:\Users\weiyi\AppData\Local\Temp\ccemZue5.s 			page 29


 571              	.LVL46:
 406:Middlewares/Third_Party/FreeRTOS/Source/event_groups.c **** 
 572              		.loc 1 406 5 view .LVU176
 406:Middlewares/Third_Party/FreeRTOS/Source/event_groups.c **** 
 573              		.loc 1 406 14 is_stmt 0 view .LVU177
 574 00ea D7F80090 		ldr	r9, [r7]
 575              	.LVL47:
 410:Middlewares/Third_Party/FreeRTOS/Source/event_groups.c **** 				{
 576              		.loc 1 410 5 is_stmt 1 view .LVU178
 410:Middlewares/Third_Party/FreeRTOS/Source/event_groups.c **** 				{
 577              		.loc 1 410 9 is_stmt 0 view .LVU179
 578 00ee 2A46     		mov	r2, r5
 579 00f0 2146     		mov	r1, r4
 580 00f2 4846     		mov	r0, r9
 581 00f4 FFF7FEFF 		bl	prvTestWaitCondition
 582              	.LVL48:
 410:Middlewares/Third_Party/FreeRTOS/Source/event_groups.c **** 				{
 583              		.loc 1 410 7 view .LVU180
 584 00f8 18B1     		cbz	r0, .L33
 412:Middlewares/Third_Party/FreeRTOS/Source/event_groups.c **** 					{
 585              		.loc 1 412 6 is_stmt 1 view .LVU181
 412:Middlewares/Third_Party/FreeRTOS/Source/event_groups.c **** 					{
 586              		.loc 1 412 8 is_stmt 0 view .LVU182
 587 00fa 16B1     		cbz	r6, .L33
 414:Middlewares/Third_Party/FreeRTOS/Source/event_groups.c **** 					}
 588              		.loc 1 414 7 is_stmt 1 view .LVU183
 414:Middlewares/Third_Party/FreeRTOS/Source/event_groups.c **** 					}
 589              		.loc 1 414 32 is_stmt 0 view .LVU184
 590 00fc 29EA0404 		bic	r4, r9, r4
 591              	.LVL49:
 414:Middlewares/Third_Party/FreeRTOS/Source/event_groups.c **** 					}
 592              		.loc 1 414 32 view .LVU185
 593 0100 3C60     		str	r4, [r7]
 594              	.L33:
 423:Middlewares/Third_Party/FreeRTOS/Source/event_groups.c **** 				}
 595              		.loc 1 423 30 is_stmt 1 view .LVU186
 425:Middlewares/Third_Party/FreeRTOS/Source/event_groups.c **** 			}
 596              		.loc 1 425 5 view .LVU187
 597              	.LVL50:
 427:Middlewares/Third_Party/FreeRTOS/Source/event_groups.c **** 		}
 598              		.loc 1 427 4 view .LVU188
 599 0102 FFF7FEFF 		bl	vPortExitCritical
 600              	.LVL51:
 601 0106 D3E7     		b	.L32
 602              		.cfi_endproc
 603              	.LFE7:
 605              		.section	.text.xEventGroupClearBits,"ax",%progbits
 606              		.align	1
 607              		.global	xEventGroupClearBits
 608              		.syntax unified
 609              		.thumb
 610              		.thumb_func
 611              		.fpu softvfp
 613              	xEventGroupClearBits:
 614              	.LVL52:
 615              	.LFB8:
 447:Middlewares/Third_Party/FreeRTOS/Source/event_groups.c **** EventGroup_t *pxEventBits = ( EventGroup_t * ) xEventGroup;
ARM GAS  C:\Users\weiyi\AppData\Local\Temp\ccemZue5.s 			page 30


 616              		.loc 1 447 1 view -0
 617              		.cfi_startproc
 618              		@ args = 0, pretend = 0, frame = 0
 619              		@ frame_needed = 0, uses_anonymous_args = 0
 448:Middlewares/Third_Party/FreeRTOS/Source/event_groups.c **** EventBits_t uxReturn;
 620              		.loc 1 448 1 view .LVU190
 449:Middlewares/Third_Party/FreeRTOS/Source/event_groups.c **** 
 621              		.loc 1 449 1 view .LVU191
 453:Middlewares/Third_Party/FreeRTOS/Source/event_groups.c **** 	configASSERT( ( uxBitsToClear & eventEVENT_BITS_CONTROL_BYTES ) == 0 );
 622              		.loc 1 453 2 view .LVU192
 623 0000 70B1     		cbz	r0, .L46
 447:Middlewares/Third_Party/FreeRTOS/Source/event_groups.c **** EventGroup_t *pxEventBits = ( EventGroup_t * ) xEventGroup;
 624              		.loc 1 447 1 is_stmt 0 discriminator 2 view .LVU193
 625 0002 70B5     		push	{r4, r5, r6, lr}
 626              	.LCFI7:
 627              		.cfi_def_cfa_offset 16
 628              		.cfi_offset 4, -16
 629              		.cfi_offset 5, -12
 630              		.cfi_offset 6, -8
 631              		.cfi_offset 14, -4
 632 0004 0C46     		mov	r4, r1
 633 0006 0546     		mov	r5, r0
 453:Middlewares/Third_Party/FreeRTOS/Source/event_groups.c **** 	configASSERT( ( uxBitsToClear & eventEVENT_BITS_CONTROL_BYTES ) == 0 );
 634              		.loc 1 453 29 is_stmt 1 discriminator 2 view .LVU194
 454:Middlewares/Third_Party/FreeRTOS/Source/event_groups.c **** 
 635              		.loc 1 454 2 discriminator 2 view .LVU195
 636 0008 11F07F4F 		tst	r1, #-16777216
 637 000c 11D0     		beq	.L42
 454:Middlewares/Third_Party/FreeRTOS/Source/event_groups.c **** 
 638              		.loc 1 454 2 view .LVU196
 639              	.LBB53:
 640              	.LBI53:
 191:Middlewares/Third_Party/FreeRTOS/Source/portable/GCC/ARM_CM3/portmacro.h **** {
 641              		.loc 2 191 30 view .LVU197
 642              	.LBB54:
 193:Middlewares/Third_Party/FreeRTOS/Source/portable/GCC/ARM_CM3/portmacro.h **** 
 643              		.loc 2 193 1 view .LVU198
 644              		.loc 2 195 2 view .LVU199
 645              		.syntax unified
 646              	@ 195 "Middlewares/Third_Party/FreeRTOS/Source/portable/GCC/ARM_CM3/portmacro.h" 1
 647 000e 4FF05003 			mov r3, #80												
 648 0012 83F31188 		msr basepri, r3											
 649 0016 BFF36F8F 		isb														
 650 001a BFF34F8F 		dsb														
 651              	
 652              	@ 0 "" 2
 653              	.LVL53:
 654              		.thumb
 655              		.syntax unified
 656              	.L43:
 657              		.loc 2 195 2 is_stmt 0 view .LVU200
 658              	.LBE54:
 659              	.LBE53:
 454:Middlewares/Third_Party/FreeRTOS/Source/event_groups.c **** 
 660              		.loc 1 454 2 is_stmt 1 discriminator 2 view .LVU201
 454:Middlewares/Third_Party/FreeRTOS/Source/event_groups.c **** 
 661              		.loc 1 454 2 discriminator 2 view .LVU202
ARM GAS  C:\Users\weiyi\AppData\Local\Temp\ccemZue5.s 			page 31


 454:Middlewares/Third_Party/FreeRTOS/Source/event_groups.c **** 
 662              		.loc 1 454 2 discriminator 2 view .LVU203
 663 001e FEE7     		b	.L43
 664              	.L46:
 665              	.LCFI8:
 666              		.cfi_def_cfa_offset 0
 667              		.cfi_restore 4
 668              		.cfi_restore 5
 669              		.cfi_restore 6
 670              		.cfi_restore 14
 453:Middlewares/Third_Party/FreeRTOS/Source/event_groups.c **** 	configASSERT( ( uxBitsToClear & eventEVENT_BITS_CONTROL_BYTES ) == 0 );
 671              		.loc 1 453 2 view .LVU204
 672              	.LBB55:
 673              	.LBI55:
 191:Middlewares/Third_Party/FreeRTOS/Source/portable/GCC/ARM_CM3/portmacro.h **** {
 674              		.loc 2 191 30 view .LVU205
 675              	.LBB56:
 193:Middlewares/Third_Party/FreeRTOS/Source/portable/GCC/ARM_CM3/portmacro.h **** 
 676              		.loc 2 193 1 view .LVU206
 677              		.loc 2 195 2 view .LVU207
 678              		.syntax unified
 679              	@ 195 "Middlewares/Third_Party/FreeRTOS/Source/portable/GCC/ARM_CM3/portmacro.h" 1
 680 0020 4FF05003 			mov r3, #80												
 681 0024 83F31188 		msr basepri, r3											
 682 0028 BFF36F8F 		isb														
 683 002c BFF34F8F 		dsb														
 684              	
 685              	@ 0 "" 2
 686              	.LVL54:
 687              		.thumb
 688              		.syntax unified
 689              	.L41:
 690              		.loc 2 195 2 is_stmt 0 view .LVU208
 691              	.LBE56:
 692              	.LBE55:
 453:Middlewares/Third_Party/FreeRTOS/Source/event_groups.c **** 	configASSERT( ( uxBitsToClear & eventEVENT_BITS_CONTROL_BYTES ) == 0 );
 693              		.loc 1 453 2 is_stmt 1 discriminator 1 view .LVU209
 453:Middlewares/Third_Party/FreeRTOS/Source/event_groups.c **** 	configASSERT( ( uxBitsToClear & eventEVENT_BITS_CONTROL_BYTES ) == 0 );
 694              		.loc 1 453 2 discriminator 1 view .LVU210
 453:Middlewares/Third_Party/FreeRTOS/Source/event_groups.c **** 	configASSERT( ( uxBitsToClear & eventEVENT_BITS_CONTROL_BYTES ) == 0 );
 695              		.loc 1 453 2 discriminator 1 view .LVU211
 696 0030 FEE7     		b	.L41
 697              	.L42:
 698              	.LCFI9:
 699              		.cfi_def_cfa_offset 16
 700              		.cfi_offset 4, -16
 701              		.cfi_offset 5, -12
 702              		.cfi_offset 6, -8
 703              		.cfi_offset 14, -4
 454:Middlewares/Third_Party/FreeRTOS/Source/event_groups.c **** 
 704              		.loc 1 454 72 discriminator 2 view .LVU212
 456:Middlewares/Third_Party/FreeRTOS/Source/event_groups.c **** 	{
 705              		.loc 1 456 2 discriminator 2 view .LVU213
 706 0032 FFF7FEFF 		bl	vPortEnterCritical
 707              	.LVL55:
 458:Middlewares/Third_Party/FreeRTOS/Source/event_groups.c **** 
 708              		.loc 1 458 60 discriminator 2 view .LVU214
ARM GAS  C:\Users\weiyi\AppData\Local\Temp\ccemZue5.s 			page 32


 462:Middlewares/Third_Party/FreeRTOS/Source/event_groups.c **** 
 709              		.loc 1 462 3 discriminator 2 view .LVU215
 462:Middlewares/Third_Party/FreeRTOS/Source/event_groups.c **** 
 710              		.loc 1 462 12 is_stmt 0 discriminator 2 view .LVU216
 711 0036 2E68     		ldr	r6, [r5]
 712              	.LVL56:
 465:Middlewares/Third_Party/FreeRTOS/Source/event_groups.c **** 	}
 713              		.loc 1 465 3 is_stmt 1 discriminator 2 view .LVU217
 465:Middlewares/Third_Party/FreeRTOS/Source/event_groups.c **** 	}
 714              		.loc 1 465 28 is_stmt 0 discriminator 2 view .LVU218
 715 0038 26EA0404 		bic	r4, r6, r4
 716              	.LVL57:
 465:Middlewares/Third_Party/FreeRTOS/Source/event_groups.c **** 	}
 717              		.loc 1 465 28 discriminator 2 view .LVU219
 718 003c 2C60     		str	r4, [r5]
 467:Middlewares/Third_Party/FreeRTOS/Source/event_groups.c **** 
 719              		.loc 1 467 2 is_stmt 1 discriminator 2 view .LVU220
 720 003e FFF7FEFF 		bl	vPortExitCritical
 721              	.LVL58:
 469:Middlewares/Third_Party/FreeRTOS/Source/event_groups.c **** }
 722              		.loc 1 469 2 discriminator 2 view .LVU221
 470:Middlewares/Third_Party/FreeRTOS/Source/event_groups.c **** /*-----------------------------------------------------------*/
 723              		.loc 1 470 1 is_stmt 0 discriminator 2 view .LVU222
 724 0042 3046     		mov	r0, r6
 725 0044 70BD     		pop	{r4, r5, r6, pc}
 470:Middlewares/Third_Party/FreeRTOS/Source/event_groups.c **** /*-----------------------------------------------------------*/
 726              		.loc 1 470 1 discriminator 2 view .LVU223
 727              		.cfi_endproc
 728              	.LFE8:
 730              		.section	.text.vEventGroupClearBitsCallback,"ax",%progbits
 731              		.align	1
 732              		.global	vEventGroupClearBitsCallback
 733              		.syntax unified
 734              		.thumb
 735              		.thumb_func
 736              		.fpu softvfp
 738              	vEventGroupClearBitsCallback:
 739              	.LVL59:
 740              	.LFB14:
 651:Middlewares/Third_Party/FreeRTOS/Source/event_groups.c **** 	( void ) xEventGroupClearBits( pvEventGroup, ( EventBits_t ) ulBitsToClear );
 741              		.loc 1 651 1 is_stmt 1 view -0
 742              		.cfi_startproc
 743              		@ args = 0, pretend = 0, frame = 0
 744              		@ frame_needed = 0, uses_anonymous_args = 0
 651:Middlewares/Third_Party/FreeRTOS/Source/event_groups.c **** 	( void ) xEventGroupClearBits( pvEventGroup, ( EventBits_t ) ulBitsToClear );
 745              		.loc 1 651 1 is_stmt 0 view .LVU225
 746 0000 08B5     		push	{r3, lr}
 747              	.LCFI10:
 748              		.cfi_def_cfa_offset 8
 749              		.cfi_offset 3, -8
 750              		.cfi_offset 14, -4
 652:Middlewares/Third_Party/FreeRTOS/Source/event_groups.c **** }
 751              		.loc 1 652 2 is_stmt 1 view .LVU226
 652:Middlewares/Third_Party/FreeRTOS/Source/event_groups.c **** }
 752              		.loc 1 652 11 is_stmt 0 view .LVU227
 753 0002 FFF7FEFF 		bl	xEventGroupClearBits
 754              	.LVL60:
ARM GAS  C:\Users\weiyi\AppData\Local\Temp\ccemZue5.s 			page 33


 653:Middlewares/Third_Party/FreeRTOS/Source/event_groups.c **** /*-----------------------------------------------------------*/
 755              		.loc 1 653 1 view .LVU228
 756 0006 08BD     		pop	{r3, pc}
 757              		.cfi_endproc
 758              	.LFE14:
 760              		.section	.text.xEventGroupClearBitsFromISR,"ax",%progbits
 761              		.align	1
 762              		.global	xEventGroupClearBitsFromISR
 763              		.syntax unified
 764              		.thumb
 765              		.thumb_func
 766              		.fpu softvfp
 768              	xEventGroupClearBitsFromISR:
 769              	.LVL61:
 770              	.LFB9:
 476:Middlewares/Third_Party/FreeRTOS/Source/event_groups.c **** 		BaseType_t xReturn;
 771              		.loc 1 476 2 is_stmt 1 view -0
 772              		.cfi_startproc
 773              		@ args = 0, pretend = 0, frame = 0
 774              		@ frame_needed = 0, uses_anonymous_args = 0
 476:Middlewares/Third_Party/FreeRTOS/Source/event_groups.c **** 		BaseType_t xReturn;
 775              		.loc 1 476 2 is_stmt 0 view .LVU230
 776 0000 08B5     		push	{r3, lr}
 777              	.LCFI11:
 778              		.cfi_def_cfa_offset 8
 779              		.cfi_offset 3, -8
 780              		.cfi_offset 14, -4
 781 0002 0A46     		mov	r2, r1
 477:Middlewares/Third_Party/FreeRTOS/Source/event_groups.c **** 
 782              		.loc 1 477 3 is_stmt 1 view .LVU231
 479:Middlewares/Third_Party/FreeRTOS/Source/event_groups.c **** 		xReturn = xTimerPendFunctionCallFromISR( vEventGroupClearBitsCallback, ( void * ) xEventGroup, ( 
 783              		.loc 1 479 69 view .LVU232
 480:Middlewares/Third_Party/FreeRTOS/Source/event_groups.c **** 
 784              		.loc 1 480 3 view .LVU233
 480:Middlewares/Third_Party/FreeRTOS/Source/event_groups.c **** 
 785              		.loc 1 480 13 is_stmt 0 view .LVU234
 786 0004 0023     		movs	r3, #0
 787 0006 0146     		mov	r1, r0
 788              	.LVL62:
 480:Middlewares/Third_Party/FreeRTOS/Source/event_groups.c **** 
 789              		.loc 1 480 13 view .LVU235
 790 0008 0148     		ldr	r0, .L51
 791              	.LVL63:
 480:Middlewares/Third_Party/FreeRTOS/Source/event_groups.c **** 
 792              		.loc 1 480 13 view .LVU236
 793 000a FFF7FEFF 		bl	xTimerPendFunctionCallFromISR
 794              	.LVL64:
 482:Middlewares/Third_Party/FreeRTOS/Source/event_groups.c **** 	}
 795              		.loc 1 482 3 is_stmt 1 view .LVU237
 483:Middlewares/Third_Party/FreeRTOS/Source/event_groups.c **** 
 796              		.loc 1 483 2 is_stmt 0 view .LVU238
 797 000e 08BD     		pop	{r3, pc}
 798              	.L52:
 799              		.align	2
 800              	.L51:
 801 0010 00000000 		.word	vEventGroupClearBitsCallback
 802              		.cfi_endproc
ARM GAS  C:\Users\weiyi\AppData\Local\Temp\ccemZue5.s 			page 34


 803              	.LFE9:
 805              		.section	.text.xEventGroupGetBitsFromISR,"ax",%progbits
 806              		.align	1
 807              		.global	xEventGroupGetBitsFromISR
 808              		.syntax unified
 809              		.thumb
 810              		.thumb_func
 811              		.fpu softvfp
 813              	xEventGroupGetBitsFromISR:
 814              	.LVL65:
 815              	.LFB10:
 489:Middlewares/Third_Party/FreeRTOS/Source/event_groups.c **** UBaseType_t uxSavedInterruptStatus;
 816              		.loc 1 489 1 is_stmt 1 view -0
 817              		.cfi_startproc
 818              		@ args = 0, pretend = 0, frame = 0
 819              		@ frame_needed = 0, uses_anonymous_args = 0
 820              		@ link register save eliminated.
 490:Middlewares/Third_Party/FreeRTOS/Source/event_groups.c **** EventGroup_t *pxEventBits = ( EventGroup_t * ) xEventGroup;
 821              		.loc 1 490 1 view .LVU240
 491:Middlewares/Third_Party/FreeRTOS/Source/event_groups.c **** EventBits_t uxReturn;
 822              		.loc 1 491 1 view .LVU241
 492:Middlewares/Third_Party/FreeRTOS/Source/event_groups.c **** 
 823              		.loc 1 492 1 view .LVU242
 494:Middlewares/Third_Party/FreeRTOS/Source/event_groups.c **** 	{
 824              		.loc 1 494 2 view .LVU243
 825              	.LBB57:
 826              	.LBI57:
 196:Middlewares/Third_Party/FreeRTOS/Source/portable/GCC/ARM_CM3/portmacro.h **** 	(
 197:Middlewares/Third_Party/FreeRTOS/Source/portable/GCC/ARM_CM3/portmacro.h **** 		"	mov %0, %1												\n" \
 198:Middlewares/Third_Party/FreeRTOS/Source/portable/GCC/ARM_CM3/portmacro.h **** 		"	msr basepri, %0											\n" \
 199:Middlewares/Third_Party/FreeRTOS/Source/portable/GCC/ARM_CM3/portmacro.h **** 		"	isb														\n" \
 200:Middlewares/Third_Party/FreeRTOS/Source/portable/GCC/ARM_CM3/portmacro.h **** 		"	dsb														\n" \
 201:Middlewares/Third_Party/FreeRTOS/Source/portable/GCC/ARM_CM3/portmacro.h **** 		:"=r" (ulNewBASEPRI) : "i" ( configMAX_SYSCALL_INTERRUPT_PRIORITY ) : "memory"
 202:Middlewares/Third_Party/FreeRTOS/Source/portable/GCC/ARM_CM3/portmacro.h **** 	);
 203:Middlewares/Third_Party/FreeRTOS/Source/portable/GCC/ARM_CM3/portmacro.h **** }
 204:Middlewares/Third_Party/FreeRTOS/Source/portable/GCC/ARM_CM3/portmacro.h **** 
 205:Middlewares/Third_Party/FreeRTOS/Source/portable/GCC/ARM_CM3/portmacro.h **** /*-----------------------------------------------------------*/
 206:Middlewares/Third_Party/FreeRTOS/Source/portable/GCC/ARM_CM3/portmacro.h **** 
 207:Middlewares/Third_Party/FreeRTOS/Source/portable/GCC/ARM_CM3/portmacro.h **** portFORCE_INLINE static uint32_t ulPortRaiseBASEPRI( void )
 827              		.loc 2 207 34 view .LVU244
 828              	.LBB58:
 208:Middlewares/Third_Party/FreeRTOS/Source/portable/GCC/ARM_CM3/portmacro.h **** {
 209:Middlewares/Third_Party/FreeRTOS/Source/portable/GCC/ARM_CM3/portmacro.h **** uint32_t ulOriginalBASEPRI, ulNewBASEPRI;
 829              		.loc 2 209 1 view .LVU245
 210:Middlewares/Third_Party/FreeRTOS/Source/portable/GCC/ARM_CM3/portmacro.h **** 
 211:Middlewares/Third_Party/FreeRTOS/Source/portable/GCC/ARM_CM3/portmacro.h **** 	__asm volatile
 830              		.loc 2 211 2 view .LVU246
 831              		.syntax unified
 832              	@ 211 "Middlewares/Third_Party/FreeRTOS/Source/portable/GCC/ARM_CM3/portmacro.h" 1
 833 0000 EFF31183 			mrs r3, basepri											
 834 0004 4FF05002 		mov r2, #80												
 835 0008 82F31188 		msr basepri, r2											
 836 000c BFF36F8F 		isb														
 837 0010 BFF34F8F 		dsb														
 838              	
 839              	@ 0 "" 2
 840              	.LVL66:
ARM GAS  C:\Users\weiyi\AppData\Local\Temp\ccemZue5.s 			page 35


 212:Middlewares/Third_Party/FreeRTOS/Source/portable/GCC/ARM_CM3/portmacro.h **** 	(
 213:Middlewares/Third_Party/FreeRTOS/Source/portable/GCC/ARM_CM3/portmacro.h **** 		"	mrs %0, basepri											\n" \
 214:Middlewares/Third_Party/FreeRTOS/Source/portable/GCC/ARM_CM3/portmacro.h **** 		"	mov %1, %2												\n" \
 215:Middlewares/Third_Party/FreeRTOS/Source/portable/GCC/ARM_CM3/portmacro.h **** 		"	msr basepri, %1											\n" \
 216:Middlewares/Third_Party/FreeRTOS/Source/portable/GCC/ARM_CM3/portmacro.h **** 		"	isb														\n" \
 217:Middlewares/Third_Party/FreeRTOS/Source/portable/GCC/ARM_CM3/portmacro.h **** 		"	dsb														\n" \
 218:Middlewares/Third_Party/FreeRTOS/Source/portable/GCC/ARM_CM3/portmacro.h **** 		:"=r" (ulOriginalBASEPRI), "=r" (ulNewBASEPRI) : "i" ( configMAX_SYSCALL_INTERRUPT_PRIORITY ) : "
 219:Middlewares/Third_Party/FreeRTOS/Source/portable/GCC/ARM_CM3/portmacro.h **** 	);
 220:Middlewares/Third_Party/FreeRTOS/Source/portable/GCC/ARM_CM3/portmacro.h **** 
 221:Middlewares/Third_Party/FreeRTOS/Source/portable/GCC/ARM_CM3/portmacro.h **** 	/* This return will not be reached but is necessary to prevent compiler
 222:Middlewares/Third_Party/FreeRTOS/Source/portable/GCC/ARM_CM3/portmacro.h **** 	warnings. */
 223:Middlewares/Third_Party/FreeRTOS/Source/portable/GCC/ARM_CM3/portmacro.h **** 	return ulOriginalBASEPRI;
 841              		.loc 2 223 2 view .LVU247
 842              		.loc 2 223 2 is_stmt 0 view .LVU248
 843              		.thumb
 844              		.syntax unified
 845              	.LBE58:
 846              	.LBE57:
 496:Middlewares/Third_Party/FreeRTOS/Source/event_groups.c **** 	}
 847              		.loc 1 496 3 is_stmt 1 view .LVU249
 496:Middlewares/Third_Party/FreeRTOS/Source/event_groups.c **** 	}
 848              		.loc 1 496 12 is_stmt 0 view .LVU250
 849 0014 0068     		ldr	r0, [r0]
 850              	.LVL67:
 498:Middlewares/Third_Party/FreeRTOS/Source/event_groups.c **** 
 851              		.loc 1 498 2 is_stmt 1 view .LVU251
 852              	.LBB59:
 853              	.LBI59:
 224:Middlewares/Third_Party/FreeRTOS/Source/portable/GCC/ARM_CM3/portmacro.h **** }
 225:Middlewares/Third_Party/FreeRTOS/Source/portable/GCC/ARM_CM3/portmacro.h **** /*-----------------------------------------------------------*/
 226:Middlewares/Third_Party/FreeRTOS/Source/portable/GCC/ARM_CM3/portmacro.h **** 
 227:Middlewares/Third_Party/FreeRTOS/Source/portable/GCC/ARM_CM3/portmacro.h **** portFORCE_INLINE static void vPortSetBASEPRI( uint32_t ulNewMaskValue )
 854              		.loc 2 227 30 view .LVU252
 855              	.LBB60:
 228:Middlewares/Third_Party/FreeRTOS/Source/portable/GCC/ARM_CM3/portmacro.h **** {
 229:Middlewares/Third_Party/FreeRTOS/Source/portable/GCC/ARM_CM3/portmacro.h **** 	__asm volatile
 856              		.loc 2 229 2 view .LVU253
 857              		.syntax unified
 858              	@ 229 "Middlewares/Third_Party/FreeRTOS/Source/portable/GCC/ARM_CM3/portmacro.h" 1
 859 0016 83F31188 			msr basepri, r3	
 860              	@ 0 "" 2
 861              	.LVL68:
 862              		.loc 2 229 2 is_stmt 0 view .LVU254
 863              		.thumb
 864              		.syntax unified
 865              	.LBE60:
 866              	.LBE59:
 500:Middlewares/Third_Party/FreeRTOS/Source/event_groups.c **** }
 867              		.loc 1 500 2 is_stmt 1 view .LVU255
 501:Middlewares/Third_Party/FreeRTOS/Source/event_groups.c **** /*-----------------------------------------------------------*/
 868              		.loc 1 501 1 is_stmt 0 view .LVU256
 869 001a 7047     		bx	lr
 870              		.cfi_endproc
 871              	.LFE10:
 873              		.section	.text.xEventGroupSetBits,"ax",%progbits
 874              		.align	1
 875              		.global	xEventGroupSetBits
ARM GAS  C:\Users\weiyi\AppData\Local\Temp\ccemZue5.s 			page 36


 876              		.syntax unified
 877              		.thumb
 878              		.thumb_func
 879              		.fpu softvfp
 881              	xEventGroupSetBits:
 882              	.LVL69:
 883              	.LFB11:
 505:Middlewares/Third_Party/FreeRTOS/Source/event_groups.c **** ListItem_t *pxListItem, *pxNext;
 884              		.loc 1 505 1 is_stmt 1 view -0
 885              		.cfi_startproc
 886              		@ args = 0, pretend = 0, frame = 0
 887              		@ frame_needed = 0, uses_anonymous_args = 0
 505:Middlewares/Third_Party/FreeRTOS/Source/event_groups.c **** ListItem_t *pxListItem, *pxNext;
 888              		.loc 1 505 1 is_stmt 0 view .LVU258
 889 0000 F8B5     		push	{r3, r4, r5, r6, r7, lr}
 890              	.LCFI12:
 891              		.cfi_def_cfa_offset 24
 892              		.cfi_offset 3, -24
 893              		.cfi_offset 4, -20
 894              		.cfi_offset 5, -16
 895              		.cfi_offset 6, -12
 896              		.cfi_offset 7, -8
 897              		.cfi_offset 14, -4
 506:Middlewares/Third_Party/FreeRTOS/Source/event_groups.c **** ListItem_t const *pxListEnd;
 898              		.loc 1 506 1 is_stmt 1 view .LVU259
 507:Middlewares/Third_Party/FreeRTOS/Source/event_groups.c **** List_t *pxList;
 899              		.loc 1 507 1 view .LVU260
 508:Middlewares/Third_Party/FreeRTOS/Source/event_groups.c **** EventBits_t uxBitsToClear = 0, uxBitsWaitedFor, uxControlBits;
 900              		.loc 1 508 1 view .LVU261
 509:Middlewares/Third_Party/FreeRTOS/Source/event_groups.c **** EventGroup_t *pxEventBits = ( EventGroup_t * ) xEventGroup;
 901              		.loc 1 509 1 view .LVU262
 902              	.LVL70:
 510:Middlewares/Third_Party/FreeRTOS/Source/event_groups.c **** BaseType_t xMatchFound = pdFALSE;
 903              		.loc 1 510 1 view .LVU263
 511:Middlewares/Third_Party/FreeRTOS/Source/event_groups.c **** 
 904              		.loc 1 511 1 view .LVU264
 515:Middlewares/Third_Party/FreeRTOS/Source/event_groups.c **** 	configASSERT( ( uxBitsToSet & eventEVENT_BITS_CONTROL_BYTES ) == 0 );
 905              		.loc 1 515 2 view .LVU265
 906 0002 68B1     		cbz	r0, .L66
 907 0004 0D46     		mov	r5, r1
 908 0006 0446     		mov	r4, r0
 515:Middlewares/Third_Party/FreeRTOS/Source/event_groups.c **** 	configASSERT( ( uxBitsToSet & eventEVENT_BITS_CONTROL_BYTES ) == 0 );
 909              		.loc 1 515 29 discriminator 2 view .LVU266
 516:Middlewares/Third_Party/FreeRTOS/Source/event_groups.c **** 
 910              		.loc 1 516 2 discriminator 2 view .LVU267
 911 0008 11F07F47 		ands	r7, r1, #-16777216
 912 000c 11D0     		beq	.L57
 516:Middlewares/Third_Party/FreeRTOS/Source/event_groups.c **** 
 913              		.loc 1 516 2 view .LVU268
 914              	.LBB61:
 915              	.LBI61:
 191:Middlewares/Third_Party/FreeRTOS/Source/portable/GCC/ARM_CM3/portmacro.h **** {
 916              		.loc 2 191 30 view .LVU269
 917              	.LBB62:
 193:Middlewares/Third_Party/FreeRTOS/Source/portable/GCC/ARM_CM3/portmacro.h **** 
 918              		.loc 2 193 1 view .LVU270
 195:Middlewares/Third_Party/FreeRTOS/Source/portable/GCC/ARM_CM3/portmacro.h **** 	(
ARM GAS  C:\Users\weiyi\AppData\Local\Temp\ccemZue5.s 			page 37


 919              		.loc 2 195 2 view .LVU271
 920              		.syntax unified
 921              	@ 195 "Middlewares/Third_Party/FreeRTOS/Source/portable/GCC/ARM_CM3/portmacro.h" 1
 922 000e 4FF05003 			mov r3, #80												
 923 0012 83F31188 		msr basepri, r3											
 924 0016 BFF36F8F 		isb														
 925 001a BFF34F8F 		dsb														
 926              	
 927              	@ 0 "" 2
 928              	.LVL71:
 929              		.thumb
 930              		.syntax unified
 931              	.L58:
 195:Middlewares/Third_Party/FreeRTOS/Source/portable/GCC/ARM_CM3/portmacro.h **** 	(
 932              		.loc 2 195 2 is_stmt 0 view .LVU272
 933              	.LBE62:
 934              	.LBE61:
 516:Middlewares/Third_Party/FreeRTOS/Source/event_groups.c **** 
 935              		.loc 1 516 2 is_stmt 1 discriminator 2 view .LVU273
 516:Middlewares/Third_Party/FreeRTOS/Source/event_groups.c **** 
 936              		.loc 1 516 2 discriminator 2 view .LVU274
 516:Middlewares/Third_Party/FreeRTOS/Source/event_groups.c **** 
 937              		.loc 1 516 2 discriminator 2 view .LVU275
 938 001e FEE7     		b	.L58
 939              	.L66:
 515:Middlewares/Third_Party/FreeRTOS/Source/event_groups.c **** 	configASSERT( ( uxBitsToSet & eventEVENT_BITS_CONTROL_BYTES ) == 0 );
 940              		.loc 1 515 2 view .LVU276
 941              	.LBB63:
 942              	.LBI63:
 191:Middlewares/Third_Party/FreeRTOS/Source/portable/GCC/ARM_CM3/portmacro.h **** {
 943              		.loc 2 191 30 view .LVU277
 944              	.LBB64:
 193:Middlewares/Third_Party/FreeRTOS/Source/portable/GCC/ARM_CM3/portmacro.h **** 
 945              		.loc 2 193 1 view .LVU278
 195:Middlewares/Third_Party/FreeRTOS/Source/portable/GCC/ARM_CM3/portmacro.h **** 	(
 946              		.loc 2 195 2 view .LVU279
 947              		.syntax unified
 948              	@ 195 "Middlewares/Third_Party/FreeRTOS/Source/portable/GCC/ARM_CM3/portmacro.h" 1
 949 0020 4FF05003 			mov r3, #80												
 950 0024 83F31188 		msr basepri, r3											
 951 0028 BFF36F8F 		isb														
 952 002c BFF34F8F 		dsb														
 953              	
 954              	@ 0 "" 2
 955              	.LVL72:
 956              		.thumb
 957              		.syntax unified
 958              	.L56:
 195:Middlewares/Third_Party/FreeRTOS/Source/portable/GCC/ARM_CM3/portmacro.h **** 	(
 959              		.loc 2 195 2 is_stmt 0 view .LVU280
 960              	.LBE64:
 961              	.LBE63:
 515:Middlewares/Third_Party/FreeRTOS/Source/event_groups.c **** 	configASSERT( ( uxBitsToSet & eventEVENT_BITS_CONTROL_BYTES ) == 0 );
 962              		.loc 1 515 2 is_stmt 1 discriminator 1 view .LVU281
 515:Middlewares/Third_Party/FreeRTOS/Source/event_groups.c **** 	configASSERT( ( uxBitsToSet & eventEVENT_BITS_CONTROL_BYTES ) == 0 );
 963              		.loc 1 515 2 discriminator 1 view .LVU282
 515:Middlewares/Third_Party/FreeRTOS/Source/event_groups.c **** 	configASSERT( ( uxBitsToSet & eventEVENT_BITS_CONTROL_BYTES ) == 0 );
ARM GAS  C:\Users\weiyi\AppData\Local\Temp\ccemZue5.s 			page 38


 964              		.loc 1 515 2 discriminator 1 view .LVU283
 965 0030 FEE7     		b	.L56
 966              	.L57:
 516:Middlewares/Third_Party/FreeRTOS/Source/event_groups.c **** 
 967              		.loc 1 516 70 discriminator 2 view .LVU284
 518:Middlewares/Third_Party/FreeRTOS/Source/event_groups.c **** 	pxListEnd = listGET_END_MARKER( pxList ); /*lint !e826 !e740 The mini list structure is used as th
 968              		.loc 1 518 2 discriminator 2 view .LVU285
 969              	.LVL73:
 519:Middlewares/Third_Party/FreeRTOS/Source/event_groups.c **** 	vTaskSuspendAll();
 970              		.loc 1 519 2 discriminator 2 view .LVU286
 519:Middlewares/Third_Party/FreeRTOS/Source/event_groups.c **** 	vTaskSuspendAll();
 971              		.loc 1 519 12 is_stmt 0 discriminator 2 view .LVU287
 972 0032 00F10C06 		add	r6, r0, #12
 973              	.LVL74:
 520:Middlewares/Third_Party/FreeRTOS/Source/event_groups.c **** 	{
 974              		.loc 1 520 2 is_stmt 1 discriminator 2 view .LVU288
 975 0036 FFF7FEFF 		bl	vTaskSuspendAll
 976              	.LVL75:
 522:Middlewares/Third_Party/FreeRTOS/Source/event_groups.c **** 
 977              		.loc 1 522 56 discriminator 2 view .LVU289
 524:Middlewares/Third_Party/FreeRTOS/Source/event_groups.c **** 
 978              		.loc 1 524 3 discriminator 2 view .LVU290
 524:Middlewares/Third_Party/FreeRTOS/Source/event_groups.c **** 
 979              		.loc 1 524 14 is_stmt 0 discriminator 2 view .LVU291
 980 003a 2069     		ldr	r0, [r4, #16]
 981              	.LVL76:
 527:Middlewares/Third_Party/FreeRTOS/Source/event_groups.c **** 
 982              		.loc 1 527 3 is_stmt 1 discriminator 2 view .LVU292
 527:Middlewares/Third_Party/FreeRTOS/Source/event_groups.c **** 
 983              		.loc 1 527 28 is_stmt 0 discriminator 2 view .LVU293
 984 003c 2368     		ldr	r3, [r4]
 985 003e 2B43     		orrs	r3, r3, r5
 986 0040 2360     		str	r3, [r4]
 530:Middlewares/Third_Party/FreeRTOS/Source/event_groups.c **** 		{
 987              		.loc 1 530 3 is_stmt 1 discriminator 2 view .LVU294
 530:Middlewares/Third_Party/FreeRTOS/Source/event_groups.c **** 		{
 988              		.loc 1 530 8 is_stmt 0 discriminator 2 view .LVU295
 989 0042 0AE0     		b	.L59
 990              	.LVL77:
 991              	.L60:
 552:Middlewares/Third_Party/FreeRTOS/Source/event_groups.c **** 			{
 992              		.loc 1 552 9 is_stmt 1 view .LVU296
 552:Middlewares/Third_Party/FreeRTOS/Source/event_groups.c **** 			{
 993              		.loc 1 552 44 is_stmt 0 view .LVU297
 994 0044 2168     		ldr	r1, [r4]
 552:Middlewares/Third_Party/FreeRTOS/Source/event_groups.c **** 			{
 995              		.loc 1 552 11 view .LVU298
 996 0046 32EA0101 		bics	r1, r2, r1
 997 004a 05D1     		bne	.L62
 552:Middlewares/Third_Party/FreeRTOS/Source/event_groups.c **** 			{
 998              		.loc 1 552 11 view .LVU299
 999 004c 11E0     		b	.L61
 1000              	.LVL78:
 1001              	.L63:
 571:Middlewares/Third_Party/FreeRTOS/Source/event_groups.c **** 				}
 1002              		.loc 1 571 30 is_stmt 1 view .LVU300
 579:Middlewares/Third_Party/FreeRTOS/Source/event_groups.c **** 			}
ARM GAS  C:\Users\weiyi\AppData\Local\Temp\ccemZue5.s 			page 39


 1003              		.loc 1 579 5 view .LVU301
 579:Middlewares/Third_Party/FreeRTOS/Source/event_groups.c **** 			}
 1004              		.loc 1 579 63 is_stmt 0 view .LVU302
 1005 004e 2168     		ldr	r1, [r4]
 579:Middlewares/Third_Party/FreeRTOS/Source/event_groups.c **** 			}
 1006              		.loc 1 579 5 view .LVU303
 1007 0050 41F00071 		orr	r1, r1, #33554432
 1008 0054 FFF7FEFF 		bl	vTaskRemoveFromUnorderedEventList
 1009              	.LVL79:
 1010              	.L62:
 505:Middlewares/Third_Party/FreeRTOS/Source/event_groups.c **** ListItem_t *pxListItem, *pxNext;
 1011              		.loc 1 505 1 view .LVU304
 1012 0058 2846     		mov	r0, r5
 1013              	.LVL80:
 1014              	.L59:
 530:Middlewares/Third_Party/FreeRTOS/Source/event_groups.c **** 		{
 1015              		.loc 1 530 8 is_stmt 1 view .LVU305
 1016 005a B042     		cmp	r0, r6
 1017 005c 0ED0     		beq	.L67
 532:Middlewares/Third_Party/FreeRTOS/Source/event_groups.c **** 			uxBitsWaitedFor = listGET_LIST_ITEM_VALUE( pxListItem );
 1018              		.loc 1 532 4 view .LVU306
 532:Middlewares/Third_Party/FreeRTOS/Source/event_groups.c **** 			uxBitsWaitedFor = listGET_LIST_ITEM_VALUE( pxListItem );
 1019              		.loc 1 532 11 is_stmt 0 view .LVU307
 1020 005e 4568     		ldr	r5, [r0, #4]
 1021              	.LVL81:
 533:Middlewares/Third_Party/FreeRTOS/Source/event_groups.c **** 			xMatchFound = pdFALSE;
 1022              		.loc 1 533 4 is_stmt 1 view .LVU308
 533:Middlewares/Third_Party/FreeRTOS/Source/event_groups.c **** 			xMatchFound = pdFALSE;
 1023              		.loc 1 533 20 is_stmt 0 view .LVU309
 1024 0060 0368     		ldr	r3, [r0]
 1025              	.LVL82:
 534:Middlewares/Third_Party/FreeRTOS/Source/event_groups.c **** 
 1026              		.loc 1 534 4 is_stmt 1 view .LVU310
 537:Middlewares/Third_Party/FreeRTOS/Source/event_groups.c **** 			uxBitsWaitedFor &= ~eventEVENT_BITS_CONTROL_BYTES;
 1027              		.loc 1 537 4 view .LVU311
 538:Middlewares/Third_Party/FreeRTOS/Source/event_groups.c **** 
 1028              		.loc 1 538 4 view .LVU312
 538:Middlewares/Third_Party/FreeRTOS/Source/event_groups.c **** 
 1029              		.loc 1 538 20 is_stmt 0 view .LVU313
 1030 0062 23F07F42 		bic	r2, r3, #-16777216
 1031              	.LVL83:
 540:Middlewares/Third_Party/FreeRTOS/Source/event_groups.c **** 			{
 1032              		.loc 1 540 4 is_stmt 1 view .LVU314
 540:Middlewares/Third_Party/FreeRTOS/Source/event_groups.c **** 			{
 1033              		.loc 1 540 6 is_stmt 0 view .LVU315
 1034 0066 13F0806F 		tst	r3, #67108864
 1035 006a EBD1     		bne	.L60
 543:Middlewares/Third_Party/FreeRTOS/Source/event_groups.c **** 				{
 1036              		.loc 1 543 5 is_stmt 1 view .LVU316
 543:Middlewares/Third_Party/FreeRTOS/Source/event_groups.c **** 				{
 1037              		.loc 1 543 40 is_stmt 0 view .LVU317
 1038 006c 2168     		ldr	r1, [r4]
 543:Middlewares/Third_Party/FreeRTOS/Source/event_groups.c **** 				{
 1039              		.loc 1 543 7 view .LVU318
 1040 006e 1142     		tst	r1, r2
 1041 0070 F2D0     		beq	.L62
 1042              	.L61:
ARM GAS  C:\Users\weiyi\AppData\Local\Temp\ccemZue5.s 			page 40


 1043              	.LVL84:
 565:Middlewares/Third_Party/FreeRTOS/Source/event_groups.c **** 				{
 1044              		.loc 1 565 5 is_stmt 1 view .LVU319
 565:Middlewares/Third_Party/FreeRTOS/Source/event_groups.c **** 				{
 1045              		.loc 1 565 7 is_stmt 0 view .LVU320
 1046 0072 13F0807F 		tst	r3, #16777216
 1047 0076 EAD0     		beq	.L63
 567:Middlewares/Third_Party/FreeRTOS/Source/event_groups.c **** 				}
 1048              		.loc 1 567 6 is_stmt 1 view .LVU321
 567:Middlewares/Third_Party/FreeRTOS/Source/event_groups.c **** 				}
 1049              		.loc 1 567 20 is_stmt 0 view .LVU322
 1050 0078 1743     		orrs	r7, r7, r2
 1051              	.LVL85:
 567:Middlewares/Third_Party/FreeRTOS/Source/event_groups.c **** 				}
 1052              		.loc 1 567 20 view .LVU323
 1053 007a E8E7     		b	.L63
 1054              	.LVL86:
 1055              	.L67:
 590:Middlewares/Third_Party/FreeRTOS/Source/event_groups.c **** 	}
 1056              		.loc 1 590 3 is_stmt 1 view .LVU324
 590:Middlewares/Third_Party/FreeRTOS/Source/event_groups.c **** 	}
 1057              		.loc 1 590 28 is_stmt 0 view .LVU325
 1058 007c 2368     		ldr	r3, [r4]
 1059 007e 23EA0703 		bic	r3, r3, r7
 1060 0082 2360     		str	r3, [r4]
 592:Middlewares/Third_Party/FreeRTOS/Source/event_groups.c **** 
 1061              		.loc 1 592 2 is_stmt 1 view .LVU326
 592:Middlewares/Third_Party/FreeRTOS/Source/event_groups.c **** 
 1062              		.loc 1 592 11 is_stmt 0 view .LVU327
 1063 0084 FFF7FEFF 		bl	xTaskResumeAll
 1064              	.LVL87:
 594:Middlewares/Third_Party/FreeRTOS/Source/event_groups.c **** }
 1065              		.loc 1 594 2 is_stmt 1 view .LVU328
 595:Middlewares/Third_Party/FreeRTOS/Source/event_groups.c **** /*-----------------------------------------------------------*/
 1066              		.loc 1 595 1 is_stmt 0 view .LVU329
 1067 0088 2068     		ldr	r0, [r4]
 1068 008a F8BD     		pop	{r3, r4, r5, r6, r7, pc}
 595:Middlewares/Third_Party/FreeRTOS/Source/event_groups.c **** /*-----------------------------------------------------------*/
 1069              		.loc 1 595 1 view .LVU330
 1070              		.cfi_endproc
 1071              	.LFE11:
 1073              		.section	.text.xEventGroupSync,"ax",%progbits
 1074              		.align	1
 1075              		.global	xEventGroupSync
 1076              		.syntax unified
 1077              		.thumb
 1078              		.thumb_func
 1079              		.fpu softvfp
 1081              	xEventGroupSync:
 1082              	.LVL88:
 1083              	.LFB6:
 177:Middlewares/Third_Party/FreeRTOS/Source/event_groups.c **** EventBits_t uxOriginalBitValue, uxReturn;
 1084              		.loc 1 177 1 is_stmt 1 view -0
 1085              		.cfi_startproc
 1086              		@ args = 0, pretend = 0, frame = 0
 1087              		@ frame_needed = 0, uses_anonymous_args = 0
 177:Middlewares/Third_Party/FreeRTOS/Source/event_groups.c **** EventBits_t uxOriginalBitValue, uxReturn;
ARM GAS  C:\Users\weiyi\AppData\Local\Temp\ccemZue5.s 			page 41


 1088              		.loc 1 177 1 is_stmt 0 view .LVU332
 1089 0000 2DE9F843 		push	{r3, r4, r5, r6, r7, r8, r9, lr}
 1090              	.LCFI13:
 1091              		.cfi_def_cfa_offset 32
 1092              		.cfi_offset 3, -32
 1093              		.cfi_offset 4, -28
 1094              		.cfi_offset 5, -24
 1095              		.cfi_offset 6, -20
 1096              		.cfi_offset 7, -16
 1097              		.cfi_offset 8, -12
 1098              		.cfi_offset 9, -8
 1099              		.cfi_offset 14, -4
 178:Middlewares/Third_Party/FreeRTOS/Source/event_groups.c **** EventGroup_t *pxEventBits = ( EventGroup_t * ) xEventGroup;
 1100              		.loc 1 178 1 is_stmt 1 view .LVU333
 179:Middlewares/Third_Party/FreeRTOS/Source/event_groups.c **** BaseType_t xAlreadyYielded;
 1101              		.loc 1 179 1 view .LVU334
 1102              	.LVL89:
 180:Middlewares/Third_Party/FreeRTOS/Source/event_groups.c **** BaseType_t xTimeoutOccurred = pdFALSE;
 1103              		.loc 1 180 1 view .LVU335
 181:Middlewares/Third_Party/FreeRTOS/Source/event_groups.c **** 
 1104              		.loc 1 181 1 view .LVU336
 183:Middlewares/Third_Party/FreeRTOS/Source/event_groups.c **** 	configASSERT( uxBitsToWaitFor != 0 );
 1105              		.loc 1 183 2 view .LVU337
 1106 0004 12F07F48 		ands	r8, r2, #-16777216
 1107 0008 08D0     		beq	.L69
 183:Middlewares/Third_Party/FreeRTOS/Source/event_groups.c **** 	configASSERT( uxBitsToWaitFor != 0 );
 1108              		.loc 1 183 2 view .LVU338
 1109              	.LBB65:
 1110              	.LBI65:
 191:Middlewares/Third_Party/FreeRTOS/Source/portable/GCC/ARM_CM3/portmacro.h **** {
 1111              		.loc 2 191 30 view .LVU339
 1112              	.LBB66:
 193:Middlewares/Third_Party/FreeRTOS/Source/portable/GCC/ARM_CM3/portmacro.h **** 
 1113              		.loc 2 193 1 view .LVU340
 195:Middlewares/Third_Party/FreeRTOS/Source/portable/GCC/ARM_CM3/portmacro.h **** 	(
 1114              		.loc 2 195 2 view .LVU341
 1115              		.syntax unified
 1116              	@ 195 "Middlewares/Third_Party/FreeRTOS/Source/portable/GCC/ARM_CM3/portmacro.h" 1
 1117 000a 4FF05003 			mov r3, #80												
 1118 000e 83F31188 		msr basepri, r3											
 1119 0012 BFF36F8F 		isb														
 1120 0016 BFF34F8F 		dsb														
 1121              	
 1122              	@ 0 "" 2
 1123              	.LVL90:
 1124              		.thumb
 1125              		.syntax unified
 1126              	.L70:
 195:Middlewares/Third_Party/FreeRTOS/Source/portable/GCC/ARM_CM3/portmacro.h **** 	(
 1127              		.loc 2 195 2 is_stmt 0 view .LVU342
 1128              	.LBE66:
 1129              	.LBE65:
 183:Middlewares/Third_Party/FreeRTOS/Source/event_groups.c **** 	configASSERT( uxBitsToWaitFor != 0 );
 1130              		.loc 1 183 2 is_stmt 1 discriminator 1 view .LVU343
 183:Middlewares/Third_Party/FreeRTOS/Source/event_groups.c **** 	configASSERT( uxBitsToWaitFor != 0 );
 1131              		.loc 1 183 2 discriminator 1 view .LVU344
 183:Middlewares/Third_Party/FreeRTOS/Source/event_groups.c **** 	configASSERT( uxBitsToWaitFor != 0 );
ARM GAS  C:\Users\weiyi\AppData\Local\Temp\ccemZue5.s 			page 42


 1132              		.loc 1 183 2 discriminator 1 view .LVU345
 1133 001a FEE7     		b	.L70
 1134              	.LVL91:
 1135              	.L69:
 183:Middlewares/Third_Party/FreeRTOS/Source/event_groups.c **** 	configASSERT( uxBitsToWaitFor != 0 );
 1136              		.loc 1 183 2 is_stmt 0 discriminator 1 view .LVU346
 1137 001c 0746     		mov	r7, r0
 1138 001e 0E46     		mov	r6, r1
 1139 0020 1446     		mov	r4, r2
 1140 0022 1D46     		mov	r5, r3
 183:Middlewares/Third_Party/FreeRTOS/Source/event_groups.c **** 	configASSERT( uxBitsToWaitFor != 0 );
 1141              		.loc 1 183 74 is_stmt 1 discriminator 2 view .LVU347
 184:Middlewares/Third_Party/FreeRTOS/Source/event_groups.c **** 	#if ( ( INCLUDE_xTaskGetSchedulerState == 1 ) || ( configUSE_TIMERS == 1 ) )
 1142              		.loc 1 184 2 discriminator 2 view .LVU348
 1143 0024 42B9     		cbnz	r2, .L71
 184:Middlewares/Third_Party/FreeRTOS/Source/event_groups.c **** 	#if ( ( INCLUDE_xTaskGetSchedulerState == 1 ) || ( configUSE_TIMERS == 1 ) )
 1144              		.loc 1 184 2 view .LVU349
 1145              	.LBB67:
 1146              	.LBI67:
 191:Middlewares/Third_Party/FreeRTOS/Source/portable/GCC/ARM_CM3/portmacro.h **** {
 1147              		.loc 2 191 30 view .LVU350
 1148              	.LBB68:
 193:Middlewares/Third_Party/FreeRTOS/Source/portable/GCC/ARM_CM3/portmacro.h **** 
 1149              		.loc 2 193 1 view .LVU351
 195:Middlewares/Third_Party/FreeRTOS/Source/portable/GCC/ARM_CM3/portmacro.h **** 	(
 1150              		.loc 2 195 2 view .LVU352
 1151              		.syntax unified
 1152              	@ 195 "Middlewares/Third_Party/FreeRTOS/Source/portable/GCC/ARM_CM3/portmacro.h" 1
 1153 0026 4FF05003 			mov r3, #80												
 1154 002a 83F31188 		msr basepri, r3											
 1155 002e BFF36F8F 		isb														
 1156 0032 BFF34F8F 		dsb														
 1157              	
 1158              	@ 0 "" 2
 1159              	.LVL92:
 1160              		.thumb
 1161              		.syntax unified
 1162              	.L72:
 195:Middlewares/Third_Party/FreeRTOS/Source/portable/GCC/ARM_CM3/portmacro.h **** 	(
 1163              		.loc 2 195 2 is_stmt 0 view .LVU353
 1164              	.LBE68:
 1165              	.LBE67:
 184:Middlewares/Third_Party/FreeRTOS/Source/event_groups.c **** 	#if ( ( INCLUDE_xTaskGetSchedulerState == 1 ) || ( configUSE_TIMERS == 1 ) )
 1166              		.loc 1 184 2 is_stmt 1 discriminator 2 view .LVU354
 184:Middlewares/Third_Party/FreeRTOS/Source/event_groups.c **** 	#if ( ( INCLUDE_xTaskGetSchedulerState == 1 ) || ( configUSE_TIMERS == 1 ) )
 1167              		.loc 1 184 2 discriminator 2 view .LVU355
 184:Middlewares/Third_Party/FreeRTOS/Source/event_groups.c **** 	#if ( ( INCLUDE_xTaskGetSchedulerState == 1 ) || ( configUSE_TIMERS == 1 ) )
 1168              		.loc 1 184 2 discriminator 2 view .LVU356
 1169 0036 FEE7     		b	.L72
 1170              	.LVL93:
 1171              	.L71:
 184:Middlewares/Third_Party/FreeRTOS/Source/event_groups.c **** 	#if ( ( INCLUDE_xTaskGetSchedulerState == 1 ) || ( configUSE_TIMERS == 1 ) )
 1172              		.loc 1 184 38 discriminator 2 view .LVU357
 187:Middlewares/Third_Party/FreeRTOS/Source/event_groups.c **** 	}
 1173              		.loc 1 187 3 discriminator 2 view .LVU358
 1174 0038 FFF7FEFF 		bl	xTaskGetSchedulerState
 1175              	.LVL94:
ARM GAS  C:\Users\weiyi\AppData\Local\Temp\ccemZue5.s 			page 43


 187:Middlewares/Third_Party/FreeRTOS/Source/event_groups.c **** 	}
 1176              		.loc 1 187 3 is_stmt 0 discriminator 2 view .LVU359
 1177 003c 48B9     		cbnz	r0, .L73
 1178 003e 45B1     		cbz	r5, .L73
 187:Middlewares/Third_Party/FreeRTOS/Source/event_groups.c **** 	}
 1179              		.loc 1 187 3 is_stmt 1 view .LVU360
 1180              	.LBB69:
 1181              	.LBI69:
 191:Middlewares/Third_Party/FreeRTOS/Source/portable/GCC/ARM_CM3/portmacro.h **** {
 1182              		.loc 2 191 30 view .LVU361
 1183              	.LBB70:
 193:Middlewares/Third_Party/FreeRTOS/Source/portable/GCC/ARM_CM3/portmacro.h **** 
 1184              		.loc 2 193 1 view .LVU362
 195:Middlewares/Third_Party/FreeRTOS/Source/portable/GCC/ARM_CM3/portmacro.h **** 	(
 1185              		.loc 2 195 2 view .LVU363
 1186              		.syntax unified
 1187              	@ 195 "Middlewares/Third_Party/FreeRTOS/Source/portable/GCC/ARM_CM3/portmacro.h" 1
 1188 0040 4FF05003 			mov r3, #80												
 1189 0044 83F31188 		msr basepri, r3											
 1190 0048 BFF36F8F 		isb														
 1191 004c BFF34F8F 		dsb														
 1192              	
 1193              	@ 0 "" 2
 1194              	.LVL95:
 1195              		.thumb
 1196              		.syntax unified
 1197              	.L74:
 195:Middlewares/Third_Party/FreeRTOS/Source/portable/GCC/ARM_CM3/portmacro.h **** 	(
 1198              		.loc 2 195 2 is_stmt 0 view .LVU364
 1199              	.LBE70:
 1200              	.LBE69:
 187:Middlewares/Third_Party/FreeRTOS/Source/event_groups.c **** 	}
 1201              		.loc 1 187 3 is_stmt 1 discriminator 3 view .LVU365
 187:Middlewares/Third_Party/FreeRTOS/Source/event_groups.c **** 	}
 1202              		.loc 1 187 3 discriminator 3 view .LVU366
 187:Middlewares/Third_Party/FreeRTOS/Source/event_groups.c **** 	}
 1203              		.loc 1 187 3 discriminator 3 view .LVU367
 1204 0050 FEE7     		b	.L74
 1205              	.L73:
 187:Middlewares/Third_Party/FreeRTOS/Source/event_groups.c **** 	}
 1206              		.loc 1 187 104 discriminator 8 view .LVU368
 191:Middlewares/Third_Party/FreeRTOS/Source/event_groups.c **** 	{
 1207              		.loc 1 191 2 discriminator 8 view .LVU369
 1208 0052 FFF7FEFF 		bl	vTaskSuspendAll
 1209              	.LVL96:
 193:Middlewares/Third_Party/FreeRTOS/Source/event_groups.c **** 
 1210              		.loc 1 193 3 discriminator 8 view .LVU370
 193:Middlewares/Third_Party/FreeRTOS/Source/event_groups.c **** 
 1211              		.loc 1 193 22 is_stmt 0 discriminator 8 view .LVU371
 1212 0056 D7F80090 		ldr	r9, [r7]
 1213              	.LVL97:
 195:Middlewares/Third_Party/FreeRTOS/Source/event_groups.c **** 
 1214              		.loc 1 195 3 is_stmt 1 discriminator 8 view .LVU372
 195:Middlewares/Third_Party/FreeRTOS/Source/event_groups.c **** 
 1215              		.loc 1 195 12 is_stmt 0 discriminator 8 view .LVU373
 1216 005a 3146     		mov	r1, r6
 1217 005c 3846     		mov	r0, r7
ARM GAS  C:\Users\weiyi\AppData\Local\Temp\ccemZue5.s 			page 44


 1218 005e FFF7FEFF 		bl	xEventGroupSetBits
 1219              	.LVL98:
 197:Middlewares/Third_Party/FreeRTOS/Source/event_groups.c **** 		{
 1220              		.loc 1 197 3 is_stmt 1 discriminator 8 view .LVU374
 197:Middlewares/Third_Party/FreeRTOS/Source/event_groups.c **** 		{
 1221              		.loc 1 197 30 is_stmt 0 discriminator 8 view .LVU375
 1222 0062 49EA0606 		orr	r6, r9, r6
 1223              	.LVL99:
 197:Middlewares/Third_Party/FreeRTOS/Source/event_groups.c **** 		{
 1224              		.loc 1 197 5 discriminator 8 view .LVU376
 1225 0066 34EA0603 		bics	r3, r4, r6
 1226 006a 1AD0     		beq	.L83
 210:Middlewares/Third_Party/FreeRTOS/Source/event_groups.c **** 			{
 1227              		.loc 1 210 4 is_stmt 1 view .LVU377
 210:Middlewares/Third_Party/FreeRTOS/Source/event_groups.c **** 			{
 1228              		.loc 1 210 6 is_stmt 0 view .LVU378
 1229 006c FDB9     		cbnz	r5, .L84
 229:Middlewares/Third_Party/FreeRTOS/Source/event_groups.c **** 				xTimeoutOccurred = pdTRUE;
 1230              		.loc 1 229 5 is_stmt 1 view .LVU379
 229:Middlewares/Third_Party/FreeRTOS/Source/event_groups.c **** 				xTimeoutOccurred = pdTRUE;
 1231              		.loc 1 229 14 is_stmt 0 view .LVU380
 1232 006e 3E68     		ldr	r6, [r7]
 1233              	.LVL100:
 230:Middlewares/Third_Party/FreeRTOS/Source/event_groups.c **** 			}
 1234              		.loc 1 230 5 is_stmt 1 view .LVU381
 1235              	.L76:
 234:Middlewares/Third_Party/FreeRTOS/Source/event_groups.c **** 
 1236              		.loc 1 234 2 view .LVU382
 234:Middlewares/Third_Party/FreeRTOS/Source/event_groups.c **** 
 1237              		.loc 1 234 20 is_stmt 0 view .LVU383
 1238 0070 FFF7FEFF 		bl	xTaskResumeAll
 1239              	.LVL101:
 236:Middlewares/Third_Party/FreeRTOS/Source/event_groups.c **** 	{
 1240              		.loc 1 236 2 is_stmt 1 view .LVU384
 236:Middlewares/Third_Party/FreeRTOS/Source/event_groups.c **** 	{
 1241              		.loc 1 236 4 is_stmt 0 view .LVU385
 1242 0074 95B1     		cbz	r5, .L68
 238:Middlewares/Third_Party/FreeRTOS/Source/event_groups.c **** 		{
 1243              		.loc 1 238 3 is_stmt 1 view .LVU386
 238:Middlewares/Third_Party/FreeRTOS/Source/event_groups.c **** 		{
 1244              		.loc 1 238 5 is_stmt 0 view .LVU387
 1245 0076 48B9     		cbnz	r0, .L79
 240:Middlewares/Third_Party/FreeRTOS/Source/event_groups.c **** 		}
 1246              		.loc 1 240 4 is_stmt 1 view .LVU388
 1247 0078 4FF0E023 		mov	r3, #-536813568
 1248 007c 4FF08052 		mov	r2, #268435456
 1249 0080 C3F8042D 		str	r2, [r3, #3332]
 240:Middlewares/Third_Party/FreeRTOS/Source/event_groups.c **** 		}
 1250              		.loc 1 240 4 view .LVU389
 1251              		.syntax unified
 1252              	@ 240 "Middlewares/Third_Party/FreeRTOS/Source/event_groups.c" 1
 1253 0084 BFF34F8F 		dsb
 1254              	@ 0 "" 2
 240:Middlewares/Third_Party/FreeRTOS/Source/event_groups.c **** 		}
 1255              		.loc 1 240 4 view .LVU390
 1256              	@ 240 "Middlewares/Third_Party/FreeRTOS/Source/event_groups.c" 1
 1257 0088 BFF36F8F 		isb
ARM GAS  C:\Users\weiyi\AppData\Local\Temp\ccemZue5.s 			page 45


 1258              	@ 0 "" 2
 240:Middlewares/Third_Party/FreeRTOS/Source/event_groups.c **** 		}
 1259              		.loc 1 240 26 view .LVU391
 1260              		.thumb
 1261              		.syntax unified
 1262              	.L79:
 244:Middlewares/Third_Party/FreeRTOS/Source/event_groups.c **** 		}
 1263              		.loc 1 244 28 view .LVU392
 251:Middlewares/Third_Party/FreeRTOS/Source/event_groups.c **** 
 1264              		.loc 1 251 3 view .LVU393
 251:Middlewares/Third_Party/FreeRTOS/Source/event_groups.c **** 
 1265              		.loc 1 251 14 is_stmt 0 view .LVU394
 1266 008c FFF7FEFF 		bl	uxTaskResetEventItemValue
 1267              	.LVL102:
 251:Middlewares/Third_Party/FreeRTOS/Source/event_groups.c **** 
 1268              		.loc 1 251 14 view .LVU395
 1269 0090 0646     		mov	r6, r0
 1270              	.LVL103:
 253:Middlewares/Third_Party/FreeRTOS/Source/event_groups.c **** 		{
 1271              		.loc 1 253 3 is_stmt 1 view .LVU396
 253:Middlewares/Third_Party/FreeRTOS/Source/event_groups.c **** 		{
 1272              		.loc 1 253 5 is_stmt 0 view .LVU397
 1273 0092 10F0007F 		tst	r0, #33554432
 1274 0096 12D0     		beq	.L85
 1275              	.LVL104:
 1276              	.L80:
 280:Middlewares/Third_Party/FreeRTOS/Source/event_groups.c **** 
 1277              		.loc 1 280 3 is_stmt 1 view .LVU398
 284:Middlewares/Third_Party/FreeRTOS/Source/event_groups.c **** 	}
 1278              		.loc 1 284 3 view .LVU399
 284:Middlewares/Third_Party/FreeRTOS/Source/event_groups.c **** 	}
 1279              		.loc 1 284 12 is_stmt 0 view .LVU400
 1280 0098 26F07F46 		bic	r6, r6, #-16777216
 1281              	.LVL105:
 287:Middlewares/Third_Party/FreeRTOS/Source/event_groups.c **** 
 1282              		.loc 1 287 2 is_stmt 1 view .LVU401
 290:Middlewares/Third_Party/FreeRTOS/Source/event_groups.c **** 
 1283              		.loc 1 290 2 view .LVU402
 292:Middlewares/Third_Party/FreeRTOS/Source/event_groups.c **** }
 1284              		.loc 1 292 2 view .LVU403
 1285              	.L68:
 293:Middlewares/Third_Party/FreeRTOS/Source/event_groups.c **** /*-----------------------------------------------------------*/
 1286              		.loc 1 293 1 is_stmt 0 view .LVU404
 1287 009c 3046     		mov	r0, r6
 1288 009e BDE8F883 		pop	{r3, r4, r5, r6, r7, r8, r9, pc}
 1289              	.LVL106:
 1290              	.L83:
 200:Middlewares/Third_Party/FreeRTOS/Source/event_groups.c **** 
 1291              		.loc 1 200 4 is_stmt 1 view .LVU405
 204:Middlewares/Third_Party/FreeRTOS/Source/event_groups.c **** 
 1292              		.loc 1 204 4 view .LVU406
 204:Middlewares/Third_Party/FreeRTOS/Source/event_groups.c **** 
 1293              		.loc 1 204 29 is_stmt 0 view .LVU407
 1294 00a2 3B68     		ldr	r3, [r7]
 1295 00a4 23EA0403 		bic	r3, r3, r4
 1296 00a8 3B60     		str	r3, [r7]
 206:Middlewares/Third_Party/FreeRTOS/Source/event_groups.c **** 		}
ARM GAS  C:\Users\weiyi\AppData\Local\Temp\ccemZue5.s 			page 46


 1297              		.loc 1 206 4 is_stmt 1 view .LVU408
 1298              	.LVL107:
 206:Middlewares/Third_Party/FreeRTOS/Source/event_groups.c **** 		}
 1299              		.loc 1 206 17 is_stmt 0 view .LVU409
 1300 00aa 4546     		mov	r5, r8
 1301 00ac E0E7     		b	.L76
 1302              	.LVL108:
 1303              	.L84:
 212:Middlewares/Third_Party/FreeRTOS/Source/event_groups.c **** 
 1304              		.loc 1 212 77 is_stmt 1 view .LVU410
 217:Middlewares/Third_Party/FreeRTOS/Source/event_groups.c **** 
 1305              		.loc 1 217 5 view .LVU411
 1306 00ae 2A46     		mov	r2, r5
 1307 00b0 44F0A061 		orr	r1, r4, #83886080
 1308 00b4 381D     		adds	r0, r7, #4
 1309 00b6 FFF7FEFF 		bl	vTaskPlaceOnUnorderedEventList
 1310              	.LVL109:
 223:Middlewares/Third_Party/FreeRTOS/Source/event_groups.c **** 			}
 1311              		.loc 1 223 5 view .LVU412
 223:Middlewares/Third_Party/FreeRTOS/Source/event_groups.c **** 			}
 1312              		.loc 1 223 14 is_stmt 0 view .LVU413
 1313 00ba 4646     		mov	r6, r8
 1314 00bc D8E7     		b	.L76
 1315              	.LVL110:
 1316              	.L85:
 256:Middlewares/Third_Party/FreeRTOS/Source/event_groups.c **** 			{
 1317              		.loc 1 256 4 is_stmt 1 view .LVU414
 1318 00be FFF7FEFF 		bl	vPortEnterCritical
 1319              	.LVL111:
 258:Middlewares/Third_Party/FreeRTOS/Source/event_groups.c **** 
 1320              		.loc 1 258 5 view .LVU415
 258:Middlewares/Third_Party/FreeRTOS/Source/event_groups.c **** 
 1321              		.loc 1 258 14 is_stmt 0 view .LVU416
 1322 00c2 3E68     		ldr	r6, [r7]
 1323              	.LVL112:
 264:Middlewares/Third_Party/FreeRTOS/Source/event_groups.c **** 				{
 1324              		.loc 1 264 5 is_stmt 1 view .LVU417
 264:Middlewares/Third_Party/FreeRTOS/Source/event_groups.c **** 				{
 1325              		.loc 1 264 7 is_stmt 0 view .LVU418
 1326 00c4 34EA0603 		bics	r3, r4, r6
 1327 00c8 02D0     		beq	.L86
 1328              	.LVL113:
 1329              	.L81:
 270:Middlewares/Third_Party/FreeRTOS/Source/event_groups.c **** 				}
 1330              		.loc 1 270 30 is_stmt 1 view .LVU419
 273:Middlewares/Third_Party/FreeRTOS/Source/event_groups.c **** 
 1331              		.loc 1 273 4 view .LVU420
 1332 00ca FFF7FEFF 		bl	vPortExitCritical
 1333              	.LVL114:
 275:Middlewares/Third_Party/FreeRTOS/Source/event_groups.c **** 		}
 1334              		.loc 1 275 4 view .LVU421
 275:Middlewares/Third_Party/FreeRTOS/Source/event_groups.c **** 		}
 1335              		.loc 1 275 4 is_stmt 0 view .LVU422
 1336 00ce E3E7     		b	.L80
 1337              	.LVL115:
 1338              	.L86:
 266:Middlewares/Third_Party/FreeRTOS/Source/event_groups.c **** 				}
ARM GAS  C:\Users\weiyi\AppData\Local\Temp\ccemZue5.s 			page 47


 1339              		.loc 1 266 6 is_stmt 1 view .LVU423
 266:Middlewares/Third_Party/FreeRTOS/Source/event_groups.c **** 				}
 1340              		.loc 1 266 31 is_stmt 0 view .LVU424
 1341 00d0 26EA0404 		bic	r4, r6, r4
 1342              	.LVL116:
 266:Middlewares/Third_Party/FreeRTOS/Source/event_groups.c **** 				}
 1343              		.loc 1 266 31 view .LVU425
 1344 00d4 3C60     		str	r4, [r7]
 1345 00d6 F8E7     		b	.L81
 1346              		.cfi_endproc
 1347              	.LFE6:
 1349              		.section	.text.vEventGroupSetBitsCallback,"ax",%progbits
 1350              		.align	1
 1351              		.global	vEventGroupSetBitsCallback
 1352              		.syntax unified
 1353              		.thumb
 1354              		.thumb_func
 1355              		.fpu softvfp
 1357              	vEventGroupSetBitsCallback:
 1358              	.LVL117:
 1359              	.LFB13:
 643:Middlewares/Third_Party/FreeRTOS/Source/event_groups.c **** 	( void ) xEventGroupSetBits( pvEventGroup, ( EventBits_t ) ulBitsToSet );
 1360              		.loc 1 643 1 is_stmt 1 view -0
 1361              		.cfi_startproc
 1362              		@ args = 0, pretend = 0, frame = 0
 1363              		@ frame_needed = 0, uses_anonymous_args = 0
 643:Middlewares/Third_Party/FreeRTOS/Source/event_groups.c **** 	( void ) xEventGroupSetBits( pvEventGroup, ( EventBits_t ) ulBitsToSet );
 1364              		.loc 1 643 1 is_stmt 0 view .LVU427
 1365 0000 08B5     		push	{r3, lr}
 1366              	.LCFI14:
 1367              		.cfi_def_cfa_offset 8
 1368              		.cfi_offset 3, -8
 1369              		.cfi_offset 14, -4
 644:Middlewares/Third_Party/FreeRTOS/Source/event_groups.c **** }
 1370              		.loc 1 644 2 is_stmt 1 view .LVU428
 644:Middlewares/Third_Party/FreeRTOS/Source/event_groups.c **** }
 1371              		.loc 1 644 11 is_stmt 0 view .LVU429
 1372 0002 FFF7FEFF 		bl	xEventGroupSetBits
 1373              	.LVL118:
 645:Middlewares/Third_Party/FreeRTOS/Source/event_groups.c **** /*-----------------------------------------------------------*/
 1374              		.loc 1 645 1 view .LVU430
 1375 0006 08BD     		pop	{r3, pc}
 1376              		.cfi_endproc
 1377              	.LFE13:
 1379              		.section	.text.vEventGroupDelete,"ax",%progbits
 1380              		.align	1
 1381              		.global	vEventGroupDelete
 1382              		.syntax unified
 1383              		.thumb
 1384              		.thumb_func
 1385              		.fpu softvfp
 1387              	vEventGroupDelete:
 1388              	.LVL119:
 1389              	.LFB12:
 599:Middlewares/Third_Party/FreeRTOS/Source/event_groups.c **** EventGroup_t *pxEventBits = ( EventGroup_t * ) xEventGroup;
 1390              		.loc 1 599 1 is_stmt 1 view -0
 1391              		.cfi_startproc
ARM GAS  C:\Users\weiyi\AppData\Local\Temp\ccemZue5.s 			page 48


 1392              		@ args = 0, pretend = 0, frame = 0
 1393              		@ frame_needed = 0, uses_anonymous_args = 0
 599:Middlewares/Third_Party/FreeRTOS/Source/event_groups.c **** EventGroup_t *pxEventBits = ( EventGroup_t * ) xEventGroup;
 1394              		.loc 1 599 1 is_stmt 0 view .LVU432
 1395 0000 10B5     		push	{r4, lr}
 1396              	.LCFI15:
 1397              		.cfi_def_cfa_offset 8
 1398              		.cfi_offset 4, -8
 1399              		.cfi_offset 14, -4
 1400 0002 0446     		mov	r4, r0
 600:Middlewares/Third_Party/FreeRTOS/Source/event_groups.c **** const List_t *pxTasksWaitingForBits = &( pxEventBits->xTasksWaitingForBits );
 1401              		.loc 1 600 1 is_stmt 1 view .LVU433
 1402              	.LVL120:
 601:Middlewares/Third_Party/FreeRTOS/Source/event_groups.c **** 
 1403              		.loc 1 601 1 view .LVU434
 603:Middlewares/Third_Party/FreeRTOS/Source/event_groups.c **** 	{
 1404              		.loc 1 603 2 view .LVU435
 1405 0004 FFF7FEFF 		bl	vTaskSuspendAll
 1406              	.LVL121:
 605:Middlewares/Third_Party/FreeRTOS/Source/event_groups.c **** 
 1407              		.loc 1 605 41 view .LVU436
 607:Middlewares/Third_Party/FreeRTOS/Source/event_groups.c **** 		{
 1408              		.loc 1 607 3 view .LVU437
 1409              	.L90:
 607:Middlewares/Third_Party/FreeRTOS/Source/event_groups.c **** 		{
 1410              		.loc 1 607 8 view .LVU438
 607:Middlewares/Third_Party/FreeRTOS/Source/event_groups.c **** 		{
 1411              		.loc 1 607 10 is_stmt 0 view .LVU439
 1412 0008 6368     		ldr	r3, [r4, #4]
 607:Middlewares/Third_Party/FreeRTOS/Source/event_groups.c **** 		{
 1413              		.loc 1 607 8 view .LVU440
 1414 000a 93B1     		cbz	r3, .L96
 611:Middlewares/Third_Party/FreeRTOS/Source/event_groups.c **** 			vTaskRemoveFromUnorderedEventList( pxTasksWaitingForBits->xListEnd.pxNext, eventUNBLOCKED_DUE_TO
 1415              		.loc 1 611 4 is_stmt 1 view .LVU441
 1416 000c 2069     		ldr	r0, [r4, #16]
 1417 000e 04F10C03 		add	r3, r4, #12
 1418 0012 9842     		cmp	r0, r3
 1419 0014 04D0     		beq	.L97
 611:Middlewares/Third_Party/FreeRTOS/Source/event_groups.c **** 			vTaskRemoveFromUnorderedEventList( pxTasksWaitingForBits->xListEnd.pxNext, eventUNBLOCKED_DUE_TO
 1420              		.loc 1 611 121 discriminator 2 view .LVU442
 612:Middlewares/Third_Party/FreeRTOS/Source/event_groups.c **** 		}
 1421              		.loc 1 612 4 discriminator 2 view .LVU443
 1422 0016 4FF00071 		mov	r1, #33554432
 1423 001a FFF7FEFF 		bl	vTaskRemoveFromUnorderedEventList
 1424              	.LVL122:
 1425 001e F3E7     		b	.L90
 1426              	.L97:
 611:Middlewares/Third_Party/FreeRTOS/Source/event_groups.c **** 			vTaskRemoveFromUnorderedEventList( pxTasksWaitingForBits->xListEnd.pxNext, eventUNBLOCKED_DUE_TO
 1427              		.loc 1 611 4 view .LVU444
 1428              	.LBB71:
 1429              	.LBI71:
 191:Middlewares/Third_Party/FreeRTOS/Source/portable/GCC/ARM_CM3/portmacro.h **** {
 1430              		.loc 2 191 30 view .LVU445
 1431              	.LBB72:
 193:Middlewares/Third_Party/FreeRTOS/Source/portable/GCC/ARM_CM3/portmacro.h **** 
 1432              		.loc 2 193 1 view .LVU446
 195:Middlewares/Third_Party/FreeRTOS/Source/portable/GCC/ARM_CM3/portmacro.h **** 	(
ARM GAS  C:\Users\weiyi\AppData\Local\Temp\ccemZue5.s 			page 49


 1433              		.loc 2 195 2 view .LVU447
 1434              		.syntax unified
 1435              	@ 195 "Middlewares/Third_Party/FreeRTOS/Source/portable/GCC/ARM_CM3/portmacro.h" 1
 1436 0020 4FF05003 			mov r3, #80												
 1437 0024 83F31188 		msr basepri, r3											
 1438 0028 BFF36F8F 		isb														
 1439 002c BFF34F8F 		dsb														
 1440              	
 1441              	@ 0 "" 2
 1442              	.LVL123:
 1443              		.thumb
 1444              		.syntax unified
 1445              	.L92:
 195:Middlewares/Third_Party/FreeRTOS/Source/portable/GCC/ARM_CM3/portmacro.h **** 	(
 1446              		.loc 2 195 2 is_stmt 0 view .LVU448
 1447              	.LBE72:
 1448              	.LBE71:
 611:Middlewares/Third_Party/FreeRTOS/Source/event_groups.c **** 			vTaskRemoveFromUnorderedEventList( pxTasksWaitingForBits->xListEnd.pxNext, eventUNBLOCKED_DUE_TO
 1449              		.loc 1 611 4 is_stmt 1 discriminator 1 view .LVU449
 611:Middlewares/Third_Party/FreeRTOS/Source/event_groups.c **** 			vTaskRemoveFromUnorderedEventList( pxTasksWaitingForBits->xListEnd.pxNext, eventUNBLOCKED_DUE_TO
 1450              		.loc 1 611 4 discriminator 1 view .LVU450
 611:Middlewares/Third_Party/FreeRTOS/Source/event_groups.c **** 			vTaskRemoveFromUnorderedEventList( pxTasksWaitingForBits->xListEnd.pxNext, eventUNBLOCKED_DUE_TO
 1451              		.loc 1 611 4 discriminator 1 view .LVU451
 1452 0030 FEE7     		b	.L92
 1453              	.L96:
 625:Middlewares/Third_Party/FreeRTOS/Source/event_groups.c **** 			{
 1454              		.loc 1 625 4 view .LVU452
 625:Middlewares/Third_Party/FreeRTOS/Source/event_groups.c **** 			{
 1455              		.loc 1 625 19 is_stmt 0 view .LVU453
 1456 0032 237F     		ldrb	r3, [r4, #28]	@ zero_extendqisi2
 625:Middlewares/Third_Party/FreeRTOS/Source/event_groups.c **** 			{
 1457              		.loc 1 625 6 view .LVU454
 1458 0034 13B1     		cbz	r3, .L98
 1459              	.L94:
 631:Middlewares/Third_Party/FreeRTOS/Source/event_groups.c **** 			}
 1460              		.loc 1 631 29 is_stmt 1 view .LVU455
 636:Middlewares/Third_Party/FreeRTOS/Source/event_groups.c **** }
 1461              		.loc 1 636 2 view .LVU456
 636:Middlewares/Third_Party/FreeRTOS/Source/event_groups.c **** }
 1462              		.loc 1 636 11 is_stmt 0 view .LVU457
 1463 0036 FFF7FEFF 		bl	xTaskResumeAll
 1464              	.LVL124:
 637:Middlewares/Third_Party/FreeRTOS/Source/event_groups.c **** /*-----------------------------------------------------------*/
 1465              		.loc 1 637 1 view .LVU458
 1466 003a 10BD     		pop	{r4, pc}
 1467              	.LVL125:
 1468              	.L98:
 627:Middlewares/Third_Party/FreeRTOS/Source/event_groups.c **** 			}
 1469              		.loc 1 627 5 is_stmt 1 view .LVU459
 1470 003c 2046     		mov	r0, r4
 1471 003e FFF7FEFF 		bl	vPortFree
 1472              	.LVL126:
 1473 0042 F8E7     		b	.L94
 1474              		.cfi_endproc
 1475              	.LFE12:
 1477              		.section	.text.xEventGroupSetBitsFromISR,"ax",%progbits
 1478              		.align	1
ARM GAS  C:\Users\weiyi\AppData\Local\Temp\ccemZue5.s 			page 50


 1479              		.global	xEventGroupSetBitsFromISR
 1480              		.syntax unified
 1481              		.thumb
 1482              		.thumb_func
 1483              		.fpu softvfp
 1485              	xEventGroupSetBitsFromISR:
 1486              	.LVL127:
 1487              	.LFB16:
 689:Middlewares/Third_Party/FreeRTOS/Source/event_groups.c **** /*-----------------------------------------------------------*/
 690:Middlewares/Third_Party/FreeRTOS/Source/event_groups.c **** 
 691:Middlewares/Third_Party/FreeRTOS/Source/event_groups.c **** #if ( ( configUSE_TRACE_FACILITY == 1 ) && ( INCLUDE_xTimerPendFunctionCall == 1 ) && ( configUSE_T
 692:Middlewares/Third_Party/FreeRTOS/Source/event_groups.c **** 
 693:Middlewares/Third_Party/FreeRTOS/Source/event_groups.c **** 	BaseType_t xEventGroupSetBitsFromISR( EventGroupHandle_t xEventGroup, const EventBits_t uxBitsToSe
 694:Middlewares/Third_Party/FreeRTOS/Source/event_groups.c **** 	{
 1488              		.loc 1 694 2 view -0
 1489              		.cfi_startproc
 1490              		@ args = 0, pretend = 0, frame = 0
 1491              		@ frame_needed = 0, uses_anonymous_args = 0
 1492              		.loc 1 694 2 is_stmt 0 view .LVU461
 1493 0000 08B5     		push	{r3, lr}
 1494              	.LCFI16:
 1495              		.cfi_def_cfa_offset 8
 1496              		.cfi_offset 3, -8
 1497              		.cfi_offset 14, -4
 1498 0002 1346     		mov	r3, r2
 695:Middlewares/Third_Party/FreeRTOS/Source/event_groups.c **** 	BaseType_t xReturn;
 1499              		.loc 1 695 2 is_stmt 1 view .LVU462
 696:Middlewares/Third_Party/FreeRTOS/Source/event_groups.c **** 
 697:Middlewares/Third_Party/FreeRTOS/Source/event_groups.c **** 		traceEVENT_GROUP_SET_BITS_FROM_ISR( xEventGroup, uxBitsToSet );
 1500              		.loc 1 697 65 view .LVU463
 698:Middlewares/Third_Party/FreeRTOS/Source/event_groups.c **** 		xReturn = xTimerPendFunctionCallFromISR( vEventGroupSetBitsCallback, ( void * ) xEventGroup, ( ui
 1501              		.loc 1 698 3 view .LVU464
 1502              		.loc 1 698 13 is_stmt 0 view .LVU465
 1503 0004 0A46     		mov	r2, r1
 1504              	.LVL128:
 1505              		.loc 1 698 13 view .LVU466
 1506 0006 0146     		mov	r1, r0
 1507              	.LVL129:
 1508              		.loc 1 698 13 view .LVU467
 1509 0008 0148     		ldr	r0, .L101
 1510              	.LVL130:
 1511              		.loc 1 698 13 view .LVU468
 1512 000a FFF7FEFF 		bl	xTimerPendFunctionCallFromISR
 1513              	.LVL131:
 699:Middlewares/Third_Party/FreeRTOS/Source/event_groups.c **** 
 700:Middlewares/Third_Party/FreeRTOS/Source/event_groups.c **** 		return xReturn;
 1514              		.loc 1 700 3 is_stmt 1 view .LVU469
 701:Middlewares/Third_Party/FreeRTOS/Source/event_groups.c **** 	}
 1515              		.loc 1 701 2 is_stmt 0 view .LVU470
 1516 000e 08BD     		pop	{r3, pc}
 1517              	.L102:
 1518              		.align	2
 1519              	.L101:
 1520 0010 00000000 		.word	vEventGroupSetBitsCallback
 1521              		.cfi_endproc
 1522              	.LFE16:
 1524              		.section	.text.uxEventGroupGetNumber,"ax",%progbits
ARM GAS  C:\Users\weiyi\AppData\Local\Temp\ccemZue5.s 			page 51


 1525              		.align	1
 1526              		.global	uxEventGroupGetNumber
 1527              		.syntax unified
 1528              		.thumb
 1529              		.thumb_func
 1530              		.fpu softvfp
 1532              	uxEventGroupGetNumber:
 1533              	.LVL132:
 1534              	.LFB17:
 702:Middlewares/Third_Party/FreeRTOS/Source/event_groups.c **** 
 703:Middlewares/Third_Party/FreeRTOS/Source/event_groups.c **** #endif
 704:Middlewares/Third_Party/FreeRTOS/Source/event_groups.c **** /*-----------------------------------------------------------*/
 705:Middlewares/Third_Party/FreeRTOS/Source/event_groups.c **** 
 706:Middlewares/Third_Party/FreeRTOS/Source/event_groups.c **** #if (configUSE_TRACE_FACILITY == 1)
 707:Middlewares/Third_Party/FreeRTOS/Source/event_groups.c **** 
 708:Middlewares/Third_Party/FreeRTOS/Source/event_groups.c **** 	UBaseType_t uxEventGroupGetNumber( void* xEventGroup )
 709:Middlewares/Third_Party/FreeRTOS/Source/event_groups.c **** 	{
 1535              		.loc 1 709 2 is_stmt 1 view -0
 1536              		.cfi_startproc
 1537              		@ args = 0, pretend = 0, frame = 0
 1538              		@ frame_needed = 0, uses_anonymous_args = 0
 1539              		@ link register save eliminated.
 710:Middlewares/Third_Party/FreeRTOS/Source/event_groups.c **** 	UBaseType_t xReturn;
 1540              		.loc 1 710 2 view .LVU472
 711:Middlewares/Third_Party/FreeRTOS/Source/event_groups.c **** 	EventGroup_t *pxEventBits = ( EventGroup_t * ) xEventGroup;
 1541              		.loc 1 711 2 view .LVU473
 712:Middlewares/Third_Party/FreeRTOS/Source/event_groups.c **** 
 713:Middlewares/Third_Party/FreeRTOS/Source/event_groups.c **** 		if( xEventGroup == NULL )
 1542              		.loc 1 713 3 view .LVU474
 1543              		.loc 1 713 5 is_stmt 0 view .LVU475
 1544 0000 08B1     		cbz	r0, .L105
 714:Middlewares/Third_Party/FreeRTOS/Source/event_groups.c **** 		{
 715:Middlewares/Third_Party/FreeRTOS/Source/event_groups.c **** 			xReturn = 0;
 716:Middlewares/Third_Party/FreeRTOS/Source/event_groups.c **** 		}
 717:Middlewares/Third_Party/FreeRTOS/Source/event_groups.c **** 		else
 718:Middlewares/Third_Party/FreeRTOS/Source/event_groups.c **** 		{
 719:Middlewares/Third_Party/FreeRTOS/Source/event_groups.c **** 			xReturn = pxEventBits->uxEventGroupNumber;
 1545              		.loc 1 719 4 is_stmt 1 view .LVU476
 1546              		.loc 1 719 12 is_stmt 0 view .LVU477
 1547 0002 8069     		ldr	r0, [r0, #24]
 1548              	.LVL133:
 1549              		.loc 1 719 12 view .LVU478
 1550 0004 7047     		bx	lr
 1551              	.LVL134:
 1552              	.L105:
 715:Middlewares/Third_Party/FreeRTOS/Source/event_groups.c **** 		}
 1553              		.loc 1 715 12 view .LVU479
 1554 0006 0020     		movs	r0, #0
 1555              	.LVL135:
 720:Middlewares/Third_Party/FreeRTOS/Source/event_groups.c **** 		}
 721:Middlewares/Third_Party/FreeRTOS/Source/event_groups.c **** 
 722:Middlewares/Third_Party/FreeRTOS/Source/event_groups.c **** 		return xReturn;
 1556              		.loc 1 722 3 is_stmt 1 view .LVU480
 723:Middlewares/Third_Party/FreeRTOS/Source/event_groups.c **** 	}
 1557              		.loc 1 723 2 is_stmt 0 view .LVU481
 1558 0008 7047     		bx	lr
 1559              		.cfi_endproc
ARM GAS  C:\Users\weiyi\AppData\Local\Temp\ccemZue5.s 			page 52


 1560              	.LFE17:
 1562              		.section	.text.vEventGroupSetNumber,"ax",%progbits
 1563              		.align	1
 1564              		.global	vEventGroupSetNumber
 1565              		.syntax unified
 1566              		.thumb
 1567              		.thumb_func
 1568              		.fpu softvfp
 1570              	vEventGroupSetNumber:
 1571              	.LVL136:
 1572              	.LFB18:
 724:Middlewares/Third_Party/FreeRTOS/Source/event_groups.c **** 
 725:Middlewares/Third_Party/FreeRTOS/Source/event_groups.c **** #endif /* configUSE_TRACE_FACILITY */
 726:Middlewares/Third_Party/FreeRTOS/Source/event_groups.c **** /*-----------------------------------------------------------*/
 727:Middlewares/Third_Party/FreeRTOS/Source/event_groups.c **** 
 728:Middlewares/Third_Party/FreeRTOS/Source/event_groups.c **** #if ( configUSE_TRACE_FACILITY == 1 )
 729:Middlewares/Third_Party/FreeRTOS/Source/event_groups.c **** 
 730:Middlewares/Third_Party/FreeRTOS/Source/event_groups.c **** 	void vEventGroupSetNumber( void * xEventGroup, UBaseType_t uxEventGroupNumber )
 731:Middlewares/Third_Party/FreeRTOS/Source/event_groups.c **** 	{
 1573              		.loc 1 731 2 is_stmt 1 view -0
 1574              		.cfi_startproc
 1575              		@ args = 0, pretend = 0, frame = 0
 1576              		@ frame_needed = 0, uses_anonymous_args = 0
 1577              		@ link register save eliminated.
 732:Middlewares/Third_Party/FreeRTOS/Source/event_groups.c **** 		( ( EventGroup_t * ) xEventGroup )->uxEventGroupNumber = uxEventGroupNumber;
 1578              		.loc 1 732 3 view .LVU483
 1579              		.loc 1 732 58 is_stmt 0 view .LVU484
 1580 0000 8161     		str	r1, [r0, #24]
 733:Middlewares/Third_Party/FreeRTOS/Source/event_groups.c **** 	}
 1581              		.loc 1 733 2 view .LVU485
 1582 0002 7047     		bx	lr
 1583              		.cfi_endproc
 1584              	.LFE18:
 1586              		.text
 1587              	.Letext0:
 1588              		.file 3 "d:\\clion\\gcc-arm-none-eabi-10.3-2021.07-win32\\gcc-arm-none-eabi-10.3-2021.07\\lib\\gcc
 1589              		.file 4 "d:\\clion\\gcc-arm-none-eabi-10.3-2021.07-win32\\gcc-arm-none-eabi-10.3-2021.07\\arm-none
 1590              		.file 5 "d:\\clion\\gcc-arm-none-eabi-10.3-2021.07-win32\\gcc-arm-none-eabi-10.3-2021.07\\arm-none
 1591              		.file 6 "Middlewares/Third_Party/FreeRTOS/Source/include/FreeRTOS.h"
 1592              		.file 7 "Middlewares/Third_Party/FreeRTOS/Source/include/list.h"
 1593              		.file 8 "Middlewares/Third_Party/FreeRTOS/Source/include/event_groups.h"
 1594              		.file 9 "Middlewares/Third_Party/FreeRTOS/Source/include/timers.h"
 1595              		.file 10 "Middlewares/Third_Party/FreeRTOS/Source/include/task.h"
 1596              		.file 11 "Middlewares/Third_Party/FreeRTOS/Source/include/portable.h"
ARM GAS  C:\Users\weiyi\AppData\Local\Temp\ccemZue5.s 			page 53

